Component: ARM Compiler 5.06 update 2 (build 183) Tool: armlink [4d35b7]

==============================================================================

Section Cross References

    scheduler.o(.text) refers to time.o(.text) for Get_Cycle_T
    scheduler.o(.text) refers to f2d.o(x$fpl$f2d) for __aeabi_f2d
    scheduler.o(.text) refers to dleqf.o(x$fpl$dleqf) for __aeabi_cdcmple
    scheduler.o(.text) refers to drleqf.o(x$fpl$drleqf) for __aeabi_cdrcmple
    scheduler.o(.text) refers to mpu6050.o(.text) for MPU6050_Read
    scheduler.o(.text) refers to dflt_clz.o(x$fpl$dfltu) for __aeabi_ui2d
    scheduler.o(.text) refers to imu.o(.text) for IMUupdate
    scheduler.o(.text) refers to ctrl.o(.text) for CTRL_1
    scheduler.o(.text) refers to rc.o(.text) for RC_Duty
    scheduler.o(.text) refers to usart.o(.text) for GOL_LINK_TASK
    scheduler.o(.text) refers to stm32f4xx_dma.o(.text) for DMA_GetFlagStatus
    scheduler.o(.text) refers to data_transfer.o(.text) for ANO_DT_Data_Exchange
    scheduler.o(.text) refers to dmul.o(x$fpl$dmul) for __aeabi_dmul
    scheduler.o(.text) refers to dfix.o(x$fpl$dfix) for __aeabi_d2iz
    scheduler.o(.text) refers to scheduler.o(.bss) for loop
    scheduler.o(.text) refers to scheduler.o(.data) for inner_loop_time
    scheduler.o(.text) refers to mpu6050.o(.bss) for mpu6050_fc
    scheduler.o(.text) refers to imu.o(.data) for Pit_fc
    scheduler.o(.text) refers to usart.o(.data) for NAV_BOARD_CONNECT
    scheduler.o(.text) refers to fly_mode.o(.bss) for mode
    scheduler.o(.text) refers to ctrl.o(.bss) for ctrl_2
    scheduler.o(.text) refers to usart.o(.bss) for flow_debug
    scheduler.o(.text) refers to ddiv.o(x$fpl$ddiv) for __aeabi_ddiv
    scheduler.o(.text) refers to height_ctrl.o(.bss) for hc_value
    scheduler.o(.text) refers to bmp.o(.bss) for baro
    scheduler.o(.text) refers to ctrl.o(.data) for thr_value
    scheduler.o(.text) refers to alt_fushion.o(.data) for ALT_POS_SONAR2
    scheduler.o(.text) refers to alt_fushion.o(.bss) for acc_body
    scheduler.o(.text) refers to height_ctrl.o(.data) for ultra_speed
    scheduler.o(.text) refers to pos_ctrl.o(.bss) for nav_spd_ctrl
    scheduler.o(.text) refers to stm32f4xx_usart.o(.text) for USART_DMACmd
    scheduler.o(.text) refers to dma.o(.text) for MYDMA_Enable
    scheduler.o(.text) refers to d2f.o(x$fpl$d2f) for __aeabi_d2f
    scheduler.o(.text) refers to anotc_baro_ctrl.o(.text) for baro_ctrl
    scheduler.o(.text) refers to pos_ctrl.o(.text) for AUTO_LAND_FLYUP
    scheduler.o(.text) refers to mymath.o(.text) for my_deathzoom_rc
    scheduler.o(.text) refers to rc.o(.bss) for RX_CH_FIX_PWM
    scheduler.o(.text) refers to rc.o(.data) for fly_ready
    scheduler.o(.text) refers to fly_mode.o(.text) for mode_check
    scheduler.o(.text) refers to ak8975.o(.text) for ANO_AK8975_Read
    scheduler.o(.text) refers to ultrasonic.o(.text) for Ultra_Duty
    scheduler.o(.text) refers to led.o(.text) for LEDRGB
    scheduler.o(.text) refers to pos_ctrl.o(.data) for state_v
    scheduler.o(.text) refers to time.o(.data) for time_1ms
    init.o(.text) refers to misc.o(.text) for NVIC_PriorityGroupConfig
    init.o(.text) refers to time.o(.text) for SysTick_Configuration
    init.o(.text) refers to i2c_soft.o(.text) for I2c_Soft_Init
    init.o(.text) refers to pwm_out.o(.text) for PWM_Out_Init
    init.o(.text) refers to mpu6050.o(.text) for MPU6050_Init
    init.o(.text) refers to led.o(.text) for LED_Init
    init.o(.text) refers to ak8975.o(.text) for HMC5883L_SetUp
    init.o(.text) refers to bmp.o(.text) for MS5611_Init_FC
    init.o(.text) refers to usart.o(.text) for Usart1_Init
    init.o(.text) refers to dma.o(.text) for MYDMA_Config
    init.o(.text) refers to stm32f4xx_usart.o(.text) for USART_DMACmd
    init.o(.text) refers to ultrasonic.o(.text) for Ultrasonic_Init
    init.o(.text) refers to flash.o(.text) for READ_PARM
    init.o(.text) refers to parameter.o(.text) for Para_Init
    init.o(.text) refers to init.o(.data) for mcuID
    init.o(.text) refers to usart.o(.bss) for SendBuff1
    init.o(.text) refers to fly_mode.o(.bss) for mode
    parameter.o(.text) refers to ctrl.o(.text) for Ctrl_Para_Init
    parameter.o(.text) refers to f2d.o(x$fpl$f2d) for __aeabi_f2d
    parameter.o(.text) refers to dflt_clz.o(x$fpl$dfltu) for __aeabi_ui2d
    parameter.o(.text) refers to ddiv.o(x$fpl$ddiv) for __aeabi_ddiv
    parameter.o(.text) refers to dleqf.o(x$fpl$dleqf) for __aeabi_cdcmple
    parameter.o(.text) refers to drleqf.o(x$fpl$drleqf) for __aeabi_cdrcmple
    parameter.o(.text) refers to dmul.o(x$fpl$dmul) for __aeabi_dmul
    parameter.o(.text) refers to d2f.o(x$fpl$d2f) for __aeabi_d2f
    parameter.o(.text) refers to mpu6050.o(.bss) for mpu6050
    parameter.o(.text) refers to parameter.o(.bss) for sensor_setup
    parameter.o(.text) refers to ak8975.o(.data) for ak8975
    parameter.o(.text) refers to ctrl.o(.bss) for ctrl_1
    parameter.o(.text) refers to parameter.o(.constdata) for .constdata
    parameter.o(.text) refers to eso.o(.bss) for eso_att_inner_c
    parameter.o(.text) refers to parameter.o(.data) for k_sensitivity
    parameter.o(.text) refers to flash.o(.data) for LENGTH_OF_DRONE
    fly_mode.o(.text) refers to usart.o(.bss) for Rc_Get_PWM
    fly_mode.o(.text) refers to height_ctrl.o(.data) for height_ctrl_mode
    fly_mode.o(.text) refers to fly_mode.o(.bss) for mode
    fly_mode.o(.text) refers to fly_mode.o(.data) for mode_state
    main.o(.text) refers to init.o(.text) for All_Init
    main.o(.text) refers to scheduler.o(.text) for Duty_Loop
    main.o(.text) refers to main.o(.data) for Init_Finish
    stm32f4xx_it.o(.text) refers to time.o(.text) for sys_time
    stm32f4xx_it.o(.text) refers to time.o(.data) for sysTickUptime
    pwm_out.o(.text) refers to time.o(.text) for Delay_ms
    pwm_out.o(.text) refers to stm32f4xx_tim.o(.text) for TIM_TimeBaseStructInit
    pwm_out.o(.text) refers to stm32f4xx_rcc.o(.text) for RCC_APB1PeriphClockCmd
    pwm_out.o(.text) refers to stm32f4xx_gpio.o(.text) for GPIO_Init
    pwm_out.o(.text) refers to system_stm32f4xx.o(.data) for SystemCoreClock
    pwm_out.o(.text) refers to pwm_out.o(.data) for motor_cal
    iic_hml.o(.text) refers to stm32f4xx_rcc.o(.text) for RCC_AHB1PeriphClockCmd
    iic_hml.o(.text) refers to stm32f4xx_gpio.o(.text) for GPIO_Init
    iic_hml.o(.text) refers to time.o(.text) for Delay_us
    i2c_soft.o(.text) refers to stm32f4xx_rcc.o(.text) for RCC_AHB1PeriphClockCmd
    i2c_soft.o(.text) refers to stm32f4xx_gpio.o(.text) for GPIO_Init
    i2c_soft.o(.text) refers to i2c_soft.o(.data) for I2C_FastMode
    led.o(.text) refers to stm32f4xx_gpio.o(.text) for GPIO_ResetBits
    led.o(.text) refers to stm32f4xx_rcc.o(.text) for RCC_AHB1PeriphClockCmd
    led.o(.text) refers to time.o(.text) for Delay_ms
    led.o(.text) refers to led.o(.data) for flag
    flash.o(.text) refers to stm32f4xx_spi.o(.text) for SPI_I2S_GetFlagStatus
    flash.o(.text) refers to stm32f4xx_rcc.o(.text) for RCC_AHB1PeriphClockCmd
    flash.o(.text) refers to stm32f4xx_gpio.o(.text) for GPIO_Init
    flash.o(.text) refers to flash.o(.data) for W25QXX_TYPE
    flash.o(.text) refers to flash.o(.bss) for W25QXX_BUFFER
    flash.o(.text) refers to stm32f4xx_flash.o(.text) for FLASH_Unlock
    flash.o(.text) refers to f2d.o(x$fpl$f2d) for __aeabi_f2d
    flash.o(.text) refers to ddiv.o(x$fpl$ddiv) for __aeabi_ddiv
    flash.o(.text) refers to d2f.o(x$fpl$d2f) for __aeabi_d2f
    flash.o(.text) refers to mpu6050.o(.bss) for mpu6050_fc
    flash.o(.text) refers to ak8975.o(.data) for ak8975_fc
    flash.o(.text) refers to usart.o(.bss) for imu_board
    flash.o(.text) refers to pos_ctrl.o(.bss) for circle
    time.o(.text) refers to stm32f4xx_rcc.o(.text) for RCC_APB1PeriphClockCmd
    time.o(.text) refers to stm32f4xx_tim.o(.text) for TIM_DeInit
    time.o(.text) refers to misc.o(.text) for NVIC_Init
    time.o(.text) refers to scheduler.o(.text) for Loop_check
    time.o(.text) refers to time.o(.data) for sysTickUptime
    time.o(.text) refers to main.o(.data) for Init_Finish
    time.o(.text) refers to time.o(.bss) for Cycle_T
    spi.o(.text) refers to stm32f4xx_spi.o(.text) for SPI_I2S_GetFlagStatus
    spi.o(.text) refers to stm32f4xx_rcc.o(.text) for RCC_AHB1PeriphClockCmd
    spi.o(.text) refers to misc.o(.text) for NVIC_Init
    spi.o(.text) refers to stm32f4xx_gpio.o(.text) for GPIO_Init
    spi.o(.text) refers to spi.o(.data) for cnt
    spi.o(.text) refers to spi.o(.bss) for buf1
    stm32f4xx_adc.o(.text) refers to stm32f4xx_rcc.o(.text) for RCC_APB2PeriphResetCmd
    stm32f4xx_gpio.o(.text) refers to stm32f4xx_rcc.o(.text) for RCC_AHB1PeriphResetCmd
    stm32f4xx_i2c.o(.text) refers to stm32f4xx_rcc.o(.text) for RCC_APB1PeriphResetCmd
    stm32f4xx_pwr.o(.text) refers to stm32f4xx_rcc.o(.text) for RCC_APB1PeriphResetCmd
    stm32f4xx_rcc.o(.text) refers to stm32f4xx_rcc.o(.data) for APBAHBPrescTable
    stm32f4xx_spi.o(.text) refers to stm32f4xx_rcc.o(.text) for RCC_APB2PeriphResetCmd
    stm32f4xx_syscfg.o(.text) refers to stm32f4xx_rcc.o(.text) for RCC_APB2PeriphResetCmd
    stm32f4xx_tim.o(.text) refers to stm32f4xx_rcc.o(.text) for RCC_APB2PeriphResetCmd
    stm32f4xx_usart.o(.text) refers to stm32f4xx_rcc.o(.text) for RCC_APB2PeriphResetCmd
    system_stm32f4xx.o(.text) refers to system_stm32f4xx.o(.data) for SystemCoreClock
    startup_stm32f4xx.o(STACK) refers (Special) to heapauxi.o(.text) for __use_two_region_memory
    startup_stm32f4xx.o(HEAP) refers (Special) to heapauxi.o(.text) for __use_two_region_memory
    startup_stm32f4xx.o(RESET) refers (Special) to heapauxi.o(.text) for __use_two_region_memory
    startup_stm32f4xx.o(RESET) refers to startup_stm32f4xx.o(STACK) for __initial_sp
    startup_stm32f4xx.o(RESET) refers to startup_stm32f4xx.o(.text) for Reset_Handler
    startup_stm32f4xx.o(RESET) refers to stm32f4xx_it.o(.text) for NMI_Handler
    startup_stm32f4xx.o(RESET) refers to spi.o(.text) for SPI2_IRQHandler
    startup_stm32f4xx.o(RESET) refers to usart.o(.text) for USART1_IRQHandler
    startup_stm32f4xx.o(.text) refers (Special) to heapauxi.o(.text) for __use_two_region_memory
    startup_stm32f4xx.o(.text) refers to system_stm32f4xx.o(.text) for SystemInit
    startup_stm32f4xx.o(.text) refers to __main.o(!!!main) for __main
    startup_stm32f4xx.o(.text) refers to startup_stm32f4xx.o(HEAP) for Heap_Mem
    startup_stm32f4xx.o(.text) refers to startup_stm32f4xx.o(STACK) for Stack_Mem
    imu.o(.text) refers to mymath.o(.text) for my_sqrt
    imu.o(.text) refers to filter.o(.text) for simple_3d_trans
    imu.o(.text) refers to imu.o(.data) for init
    imu.o(.text) refers to imu.o(.bss) for ref
    imu.o(.text) refers to ak8975.o(.data) for ak8975_fc
    imu.o(.text) refers to rc.o(.data) for fly_ready
    imu.o(.text) refers to scheduler.o(.data) for Yaw_fc1
    imu.o(.text) refers to f2d.o(x$fpl$f2d) for __aeabi_f2d
    imu.o(.text) refers to asin.o(i.__hardfp_asin) for __hardfp_asin
    imu.o(.text) refers to dmul.o(x$fpl$dmul) for __aeabi_dmul
    imu.o(.text) refers to d2f.o(x$fpl$d2f) for __aeabi_d2f
    imu.o(.text) refers to atan.o(i.__hardfp_atan) for __hardfp_atan
    imu.o(.text) refers to basic.o(x$fpl$basic) for __aeabi_dneg
    imu.o(.text) refers to mpu6050.o(.bss) for mpu6050_fc
    imu.o(.text) refers to cos.o(i.__hardfp_cos) for __hardfp_cos
    imu.o(.text) refers to sin.o(i.__hardfp_sin) for __hardfp_sin
    imu.o(.text) refers to daddsub_clz.o(x$fpl$dadd) for __aeabi_dadd
    imu.o(.text) refers to quar.o(.text) for euler_to_q
    imu.o(.text) refers to atan2.o(i.__hardfp_atan2) for __hardfp_atan2
    imu.o(.text) refers to ddiv.o(x$fpl$ddiv) for __aeabi_ddiv
    imu.o(.text) refers to fabs.o(i.__hardfp_fabs) for __hardfp_fabs
    imu.o(.text) refers to sqrt.o(i.__hardfp_sqrt) for __hardfp_sqrt
    imu.o(.text) refers to daddsub_clz.o(x$fpl$drsb) for __aeabi_drsub
    imu.o(.text) refers to dleqf.o(x$fpl$dleqf) for __aeabi_cdcmple
    imu.o(.text) refers to drleqf.o(x$fpl$drleqf) for __aeabi_cdrcmple
    imu.o(.text) refers to cosf.o(i.__hardfp_cosf) for __hardfp_cosf
    imu.o(.text) refers to sinf.o(i.__hardfp_sinf) for __hardfp_sinf
    imu.o(.text) refers to atan2f.o(i.__hardfp_atan2f) for __hardfp_atan2f
    imu.o(.text) refers to asinf.o(i.__hardfp_asinf) for __hardfp_asinf
    alt_fushion.o(.text) refers to f2d.o(x$fpl$f2d) for __aeabi_f2d
    alt_fushion.o(.text) refers to fabs.o(i.__hardfp_fabs) for __hardfp_fabs
    alt_fushion.o(.text) refers to dleqf.o(x$fpl$dleqf) for __aeabi_cdcmple
    alt_fushion.o(.text) refers to ddiv.o(x$fpl$ddiv) for __aeabi_ddiv
    alt_fushion.o(.text) refers to d2f.o(x$fpl$d2f) for __aeabi_d2f
    alt_fushion.o(.text) refers to dmul.o(x$fpl$dmul) for __aeabi_dmul
    alt_fushion.o(.text) refers to daddsub_clz.o(x$fpl$dsub) for __aeabi_dsub
    alt_fushion.o(.text) refers to alt_fushion.o(.data) for init
    alt_fushion.o(.text) refers to alt_fushion.o(.bss) for eso_h_acc
    alt_fushion.o(.text) refers to ultrasonic.o(.bss) for ultra
    alt_fushion.o(.text) refers to fly_mode.o(.bss) for mode
    alt_fushion.o(.text) refers to height_ctrl.o(.data) for height_ctrl_mode
    alt_fushion.o(.text) refers to rc.o(.data) for NS
    alt_fushion.o(.text) refers to bmp.o(.bss) for baro
    alt_fushion.o(.text) refers to mpu6050.o(.bss) for mpu6050_fc
    alt_fushion.o(.text) refers to filter.o(.text) for firstOrderFilter
    alt_fushion.o(.text) refers to mymath.o(.text) for my_deathzoom1
    alt_fushion.o(.text) refers to drleqf.o(x$fpl$drleqf) for __aeabi_cdrcmple
    alt_fushion.o(.text) refers to eso.o(.text) for OLDX_SMOOTH_IN_ESO
    alt_fushion.o(.text) refers to imu.o(.data) for ref_q_imd_down_fc
    alt_fushion.o(.text) refers to imu.o(.bss) for reference_vr_imd_down_fc
    alt_fushion.o(.text) refers to filter.o(.bss) for firstOrderFilters
    alt_fushion.o(.text) refers to quar.o(.bss) for R_control_now
    alt_fushion.o(.text) refers to alt_fushion.o(.constdata) for .constdata
    alt_fushion.o(.text) refers to usart.o(.bss) for Rc_Get_PWM
    alt_fushion.o(.text) refers to fly_mode.o(.data) for ero
    alt_fushion.o(.text) refers to rt_memclr_w.o(.text) for __aeabi_memclr4
    alt_fushion.o(.text) refers to kf_oldx.o(.text) for kf_oldx
    mymath.o(.text) refers to dleqf.o(x$fpl$dleqf) for __aeabi_cdcmple
    mymath.o(.text) refers to dmul.o(x$fpl$dmul) for __aeabi_dmul
    mymath.o(.text) refers to daddsub_clz.o(x$fpl$dadd) for __aeabi_dadd
    mymath.o(.text) refers to daddsub_clz.o(x$fpl$drsb) for __aeabi_drsub
    mymath.o(.text) refers to daddsub_clz.o(x$fpl$dsub) for __aeabi_dsub
    mymath.o(.text) refers to drleqf.o(x$fpl$drleqf) for __aeabi_cdrcmple
    mymath.o(.text) refers to dflt_clz.o(x$fpl$dflt) for __aeabi_i2d
    mymath.o(.text) refers to d2f.o(x$fpl$d2f) for __aeabi_d2f
    mymath.o(.text) refers to mymath.o(.data) for fast_atan_table
    filter.o(.text) refers to dmul.o(x$fpl$dmul) for __aeabi_dmul
    filter.o(.text) refers to daddsub_clz.o(x$fpl$dadd) for __aeabi_dadd
    filter.o(.text) refers to daddsub_clz.o(x$fpl$dsub) for __aeabi_dsub
    filter.o(.text) refers to mymath.o(.text) for my_sqrt
    filter.o(.text) refers to filter.o(.data) for h_tmp_x
    filter.o(.text) refers to filter.o(.bss) for firstOrderFilters
    fastmath.o(.text) refers to d2f.o(x$fpl$d2f) for __aeabi_d2f
    fastmath.o(.text) refers to f2d.o(x$fpl$f2d) for __aeabi_f2d
    fastmath.o(.text) refers to daddsub_clz.o(x$fpl$drsb) for __aeabi_drsub
    fastmath.o(.text) refers to daddsub_clz.o(x$fpl$dadd) for __aeabi_dadd
    fastmath.o(.text) refers to fastmath.o(.constdata) for a1l
    quar.o(.text) refers to fastmath.o(.text) for FastSqrtI
    quar.o(.text) refers to f2d.o(x$fpl$f2d) for __aeabi_f2d
    quar.o(.text) refers to sin.o(i.__hardfp_sin) for __hardfp_sin
    quar.o(.text) refers to d2f.o(x$fpl$d2f) for __aeabi_d2f
    quar.o(.text) refers to cos.o(i.__hardfp_cos) for __hardfp_cos
    quar.o(.text) refers to ddiv.o(x$fpl$ddiv) for __aeabi_ddiv
    quar.o(.text) refers to dmul.o(x$fpl$dmul) for __aeabi_dmul
    quar.o(.text) refers to daddsub_clz.o(x$fpl$dadd) for __aeabi_dadd
    quar.o(.text) refers to daddsub_clz.o(x$fpl$dsub) for __aeabi_dsub
    quar.o(.text) refers to sqrtf.o(i.__hardfp_sqrtf) for __hardfp_sqrtf
    quar.o(.text) refers to atan2f.o(i.__hardfp_atan2f) for __hardfp_atan2f
    quar.o(.text) refers to asinf.o(i.__hardfp_asinf) for __hardfp_asinf
    quar.o(.text) refers to ctrl.o(.bss) for except_A
    quar.o(.text) refers to quar.o(.bss) for exp_angle
    quar.o(.text) refers to fly_mode.o(.bss) for mode
    quar.o(.text) refers to imu.o(.data) for Yaw_fc_q
    quar.o(.text) refers to rt_memclr_w.o(.text) for __aeabi_memclr4
    quar.o(.text) refers to imu.o(.bss) for q_nav
    quar.o(.text) refers to rt_memcpy_w.o(.text) for __aeabi_memcpy4
    quar.o(.text) refers to quar.o(.constdata) for .constdata
    ctrl.o(.text) refers to mymath.o(.text) for my_deathzoom
    ctrl.o(.text) refers to f2d.o(x$fpl$f2d) for __aeabi_f2d
    ctrl.o(.text) refers to dmul.o(x$fpl$dmul) for __aeabi_dmul
    ctrl.o(.text) refers to daddsub_clz.o(x$fpl$dadd) for __aeabi_dadd
    ctrl.o(.text) refers to d2f.o(x$fpl$d2f) for __aeabi_d2f
    ctrl.o(.text) refers to quar.o(.text) for cal_ero_outter_so3
    ctrl.o(.text) refers to ctrl.o(.bss) for ctrl_1
    ctrl.o(.text) refers to rc.o(.bss) for CH_filter
    ctrl.o(.text) refers to ctrl.o(.data) for Thr_Low
    ctrl.o(.text) refers to imu.o(.data) for Yaw_fc
    ctrl.o(.text) refers to fly_mode.o(.bss) for mode
    ctrl.o(.text) refers to pos_ctrl.o(.data) for nav
    ctrl.o(.text) refers to usart.o(.data) for KEY_SEL
    ctrl.o(.text) refers to quar.o(.bss) for ero_angle_px4
    ctrl.o(.text) refers to ddiv.o(x$fpl$ddiv) for __aeabi_ddiv
    ctrl.o(.text) refers to cos.o(i.__hardfp_cos) for __hardfp_cos
    ctrl.o(.text) refers to daddsub_clz.o(x$fpl$dsub) for __aeabi_dsub
    ctrl.o(.text) refers to dleqf.o(x$fpl$dleqf) for __aeabi_cdcmple
    ctrl.o(.text) refers to drleqf.o(x$fpl$drleqf) for __aeabi_cdrcmple
    ctrl.o(.text) refers to dflt_clz.o(x$fpl$dfltu) for __aeabi_ui2d
    ctrl.o(.text) refers to rc.o(.data) for fly_ready
    ctrl.o(.text) refers to pwm_out.o(.text) for SetPwm
    ctrl.o(.text) refers to fabs.o(i.__hardfp_fabs) for __hardfp_fabs
    ctrl.o(.text) refers to height_ctrl.o(.text) for Height_Ctrl1
    ctrl.o(.text) refers to height_ctrl.o(.data) for height_ctrl_mode
    ctrl.o(.text) refers to eso.o(.text) for OLDX_ATT_CONTRL_INNER_ESO
    ctrl.o(.text) refers to mpu6050.o(.bss) for mpu6050_fc
    ctrl.o(.text) refers to eso.o(.bss) for eso_att_inner_c
    height_ctrl.o(.text) refers to mymath.o(.text) for my_deathzoom1
    height_ctrl.o(.text) refers to f2d.o(x$fpl$f2d) for __aeabi_f2d
    height_ctrl.o(.text) refers to dleqf.o(x$fpl$dleqf) for __aeabi_cdcmple
    height_ctrl.o(.text) refers to dmul.o(x$fpl$dmul) for __aeabi_dmul
    height_ctrl.o(.text) refers to dfix.o(x$fpl$dfix) for __aeabi_d2iz
    height_ctrl.o(.text) refers to fabs.o(i.__hardfp_fabs) for __hardfp_fabs
    height_ctrl.o(.text) refers to drleqf.o(x$fpl$drleqf) for __aeabi_cdrcmple
    height_ctrl.o(.text) refers to ddiv.o(x$fpl$ddiv) for __aeabi_ddiv
    height_ctrl.o(.text) refers to cos.o(i.__hardfp_cos) for __hardfp_cos
    height_ctrl.o(.text) refers to height_ctrl.o(.data) for HOLD_THR
    height_ctrl.o(.text) refers to height_ctrl.o(.bss) for ultra_pid
    height_ctrl.o(.text) refers to eso.o(.bss) for eso_pos
    height_ctrl.o(.text) refers to usart.o(.bss) for smart
    height_ctrl.o(.text) refers to alt_fushion.o(.data) for ALT_POS_BMP_UKF_OLDX
    height_ctrl.o(.text) refers to rc.o(.bss) for CH_filter
    height_ctrl.o(.text) refers to pos_ctrl.o(.data) for mode_change
    height_ctrl.o(.text) refers to fly_mode.o(.bss) for mode
    height_ctrl.o(.text) refers to flash.o(.data) for SONAR_HEIGHT
    height_ctrl.o(.text) refers to pos_ctrl.o(.bss) for circle
    height_ctrl.o(.text) refers to imu.o(.data) for Rol_fc
    height_ctrl.o(.text) refers to daddsub_clz.o(x$fpl$dsub) for __aeabi_dsub
    height_ctrl.o(.text) refers to d2f.o(x$fpl$d2f) for __aeabi_d2f
    height_ctrl.o(.text) refers to dflt_clz.o(x$fpl$dflt) for __aeabi_i2d
    height_ctrl.o(.text) refers to eso.o(.text) for OLDX_POS_CONTROL_ESO
    height_ctrl.o(.text) refers to rc.o(.data) for fly_ready
    height_ctrl.o(.text) refers to anotc_baro_ctrl.o(.data) for wz_speed
    height_ctrl.o(.text) refers to ctrl.o(.data) for Thr_Weight
    height_ctrl.o(.text) refers to time.o(.text) for Get_Cycle_T
    height_ctrl.o(.text) refers to daddsub_clz.o(x$fpl$dadd) for __aeabi_dadd
    height_ctrl.o(.text) refers to imu.o(.bss) for reference_vr_imd_down_fc
    height_ctrl.o(.text) refers to mpu6050.o(.bss) for mpu6050_fc
    height_ctrl.o(.text) refers to filter.o(.text) for Moving_Average1
    height_ctrl.o(.text) refers to bmp.o(.data) for baroAlt
    height_ctrl.o(.text) refers to usart.o(.data) for NAV_BOARD_CONNECT
    height_ctrl.o(.text) refers to ultrasonic.o(.bss) for ultra
    pos_ctrl.o(.text) refers to rt_memclr_w.o(.text) for __aeabi_memclr4
    pos_ctrl.o(.text) refers to f2d.o(x$fpl$f2d) for __aeabi_f2d
    pos_ctrl.o(.text) refers to dmul.o(x$fpl$dmul) for __aeabi_dmul
    pos_ctrl.o(.text) refers to cos.o(i.__hardfp_cos) for __hardfp_cos
    pos_ctrl.o(.text) refers to pow.o(i.__hardfp_pow) for __hardfp_pow
    pos_ctrl.o(.text) refers to daddsub_clz.o(x$fpl$drsb) for __aeabi_drsub
    pos_ctrl.o(.text) refers to daddsub_clz.o(x$fpl$dadd) for __aeabi_dadd
    pos_ctrl.o(.text) refers to ddiv.o(x$fpl$ddiv) for __aeabi_ddiv
    pos_ctrl.o(.text) refers to d2f.o(x$fpl$d2f) for __aeabi_d2f
    pos_ctrl.o(.text) refers to pos_ctrl.o(.constdata) for .constdata
    pos_ctrl.o(.text) refers to pos_ctrl.o(.data) for k_back_step
    pos_ctrl.o(.text) refers to usart.o(.data) for POS_UKF_X
    pos_ctrl.o(.text) refers to alt_fushion.o(.data) for ALT_POS_SONAR2
    pos_ctrl.o(.text) refers to imu.o(.data) for Rol_fc
    pos_ctrl.o(.text) refers to sin.o(i.__hardfp_sin) for __hardfp_sin
    pos_ctrl.o(.text) refers to daddsub_clz.o(x$fpl$dsub) for __aeabi_dsub
    pos_ctrl.o(.text) refers to pos_ctrl.o(.bss) for out_back_step
    pos_ctrl.o(.text) refers to fly_mode.o(.bss) for mode
    pos_ctrl.o(.text) refers to dflt_clz.o(x$fpl$dflt) for __aeabi_i2d
    pos_ctrl.o(.text) refers to fabs.o(i.__hardfp_fabs) for __hardfp_fabs
    pos_ctrl.o(.text) refers to dleqf.o(x$fpl$dleqf) for __aeabi_cdcmple
    pos_ctrl.o(.text) refers to eso.o(.bss) for eso_pos
    pos_ctrl.o(.text) refers to rc.o(.data) for NS
    pos_ctrl.o(.text) refers to ctrl.o(.data) for Thr_Low
    pos_ctrl.o(.text) refers to drleqf.o(x$fpl$drleqf) for __aeabi_cdrcmple
    pos_ctrl.o(.text) refers to dflt_clz.o(x$fpl$dfltu) for __aeabi_ui2d
    pos_ctrl.o(.text) refers to filter.o(.text) for firstOrderFilter
    pos_ctrl.o(.text) refers to usart.o(.bss) for smart
    pos_ctrl.o(.text) refers to rc.o(.bss) for CH_filter
    pos_ctrl.o(.text) refers to flash.o(.data) for SONAR_HEIGHT
    pos_ctrl.o(.text) refers to mpu6050.o(.bss) for mpu6050_fc
    pos_ctrl.o(.text) refers to imu.o(.bss) for reference_vr_imd_down_fc
    pos_ctrl.o(.text) refers to filter.o(.bss) for firstOrderFilters
    pos_ctrl.o(.text) refers to time.o(.text) for Get_Cycle_T
    pos_ctrl.o(.text) refers to eso.o(.text) for OLDX_POS_CONTROL_ESO
    pos_ctrl.o(.text) refers to mymath.o(.text) for my_deathzoom1
    pos_ctrl.o(.text) refers to alt_fushion.o(.bss) for acc_body
    pos_ctrl.o(.text) refers to deqf.o(x$fpl$deqf) for __aeabi_cdcmpeq
    usart.o(.text) refers to stm32f4xx_usart.o(.text) for USART_GetFlagStatus
    usart.o(.text) refers to stm32f4xx_rcc.o(.text) for RCC_APB1PeriphClockCmd
    usart.o(.text) refers to misc.o(.text) for NVIC_Init
    usart.o(.text) refers to stm32f4xx_gpio.o(.text) for GPIO_PinAFConfig
    usart.o(.text) refers to led.o(.text) for LEDRGB
    usart.o(.text) refers to time.o(.text) for Get_Cycle_T
    usart.o(.text) refers to f2d.o(x$fpl$f2d) for __aeabi_f2d
    usart.o(.text) refers to ddiv.o(x$fpl$ddiv) for __aeabi_ddiv
    usart.o(.text) refers to d2f.o(x$fpl$d2f) for __aeabi_d2f
    usart.o(.text) refers to usart.o(.bss) for uart_time
    usart.o(.text) refers to usart.o(.data) for imu_loss_cnt
    usart.o(.text) refers to alt_fushion.o(.data) for ALT_VEL_SONAR
    usart.o(.text) refers to fly_mode.o(.bss) for mode
    usart.o(.text) refers to pos_ctrl.o(.data) for now_position
    usart.o(.text) refers to mpu6050.o(.bss) for mpu6050
    usart.o(.text) refers to ak8975.o(.data) for ak8975
    usart.o(.text) refers to height_ctrl.o(.data) for ultra_distance
    usart.o(.text) refers to bmp.o(.data) for baroAlt
    usart.o(.text) refers to imu.o(.data) for Pitch
    usart.o(.text) refers to imu.o(.bss) for q_nav
    usart.o(.text) refers to scheduler.o(.data) for Yaw_fc1
    usart.o(.text) refers to rc.o(.data) for NS
    usart.o(.text) refers to init.o(.data) for ble_imu_force
    usart.o(.text) refers to pos_ctrl.o(.bss) for circle
    usart.o(.text) refers to mymath.o(.text) for To_180_degrees
    usart.o(.text) refers to dmul.o(x$fpl$dmul) for __aeabi_dmul
    usart.o(.text) refers to dfix.o(x$fpl$dfix) for __aeabi_d2iz
    usart.o(.text) refers to ctrl.o(.data) for thr_value
    usart.o(.text) refers to data_transfer.o(.text) for ANO_DT_Data_Receive_Prepare
    usart.o(.text) refers to rc.o(.text) for Feed_Rc_Dog
    usart.o(.text) refers to eso.o(.bss) for eso_pos_spd
    usart.o(.text) refers to dflt_clz.o(x$fpl$dfltu) for __aeabi_ui2d
    usart.o(.text) refers to rc.o(.bss) for RX_CH
    usart.o(.text) refers to ctrl.o(.bss) for ctrl_2
    usart.o(.text) refers to height_ctrl.o(.bss) for ultra_pid
    usart.o(.text) refers to ultrasonic.o(.text) for Ultra_Get
    data_transfer.o(.text) refers to usart.o(.text) for Usart1_Send_DMA
    data_transfer.o(.text) refers to data_transfer.o(.bss) for data_to_send
    data_transfer.o(.text) refers to rc.o(.data) for fly_ready
    data_transfer.o(.text) refers to usart.o(.bss) for BLE_DEBUG
    data_transfer.o(.text) refers to data_transfer.o(.data) for cnt
    data_transfer.o(.text) refers to height_ctrl.o(.data) for ultra_dis_lpf
    data_transfer.o(.text) refers to imu.o(.data) for Yaw_fc
    data_transfer.o(.text) refers to ak8975.o(.data) for ak8975
    data_transfer.o(.text) refers to mpu6050.o(.bss) for mpu6050_fc
    data_transfer.o(.text) refers to rc.o(.bss) for CH
    data_transfer.o(.text) refers to ctrl.o(.data) for thr_value
    data_transfer.o(.text) refers to usart.o(.data) for POS_UKF_Y
    data_transfer.o(.text) refers to anotc_baro_ctrl.o(.data) for wz_speed
    data_transfer.o(.text) refers to alt_fushion.o(.data) for ALT_POS_SONAR2
    data_transfer.o(.text) refers to fly_mode.o(.bss) for mode
    data_transfer.o(.text) refers to bmp.o(.bss) for baro
    data_transfer.o(.text) refers to f2d.o(x$fpl$f2d) for __aeabi_f2d
    data_transfer.o(.text) refers to ddiv.o(x$fpl$ddiv) for __aeabi_ddiv
    data_transfer.o(.text) refers to d2f.o(x$fpl$d2f) for __aeabi_d2f
    data_transfer.o(.text) refers to eso.o(.bss) for eso_att_inner_c
    data_transfer.o(.text) refers to ctrl.o(.bss) for ctrl_1
    data_transfer.o(.text) refers to pos_ctrl.o(.bss) for nav_spd_pid
    data_transfer.o(.text) refers to height_ctrl.o(.bss) for ultra_pid
    data_transfer.o(.text) refers to dleqf.o(x$fpl$dleqf) for __aeabi_cdcmple
    data_transfer.o(.text) refers to drleqf.o(x$fpl$drleqf) for __aeabi_cdrcmple
    data_transfer.o(.text) refers to parameter.o(.text) for Para_ResetToFactorySetup
    data_transfer.o(.text) refers to dflt_clz.o(x$fpl$dflt) for __aeabi_i2d
    data_transfer.o(.text) refers to dmul.o(x$fpl$dmul) for __aeabi_dmul
    data_transfer.o(.text) refers to scheduler.o(.data) for UART_UP_LOAD_SEL_FORCE
    rc.o(.text) refers to rc.o(.data) for CH_in_Mapping
    rc.o(.text) refers to rc.o(.bss) for CH_filter
    rc.o(.text) refers to f2d.o(x$fpl$f2d) for __aeabi_f2d
    rc.o(.text) refers to dmul.o(x$fpl$dmul) for __aeabi_dmul
    rc.o(.text) refers to d2f.o(x$fpl$d2f) for __aeabi_d2f
    rc.o(.text) refers to anotc_baro_ctrl.o(.data) for wz_speed
    dma.o(.text) refers to stm32f4xx_rcc.o(.text) for RCC_AHB1PeriphClockCmd
    dma.o(.text) refers to stm32f4xx_dma.o(.text) for DMA_DeInit
    mpu6050.o(.text) refers to i2c_soft.o(.text) for IIC_Read_nByte
    mpu6050.o(.text) refers to stm32f4xx_rcc.o(.text) for RCC_AHB1PeriphClockCmd
    mpu6050.o(.text) refers to stm32f4xx_gpio.o(.text) for GPIO_Init
    mpu6050.o(.text) refers to time.o(.text) for Delay_ms
    mpu6050.o(.text) refers to mymath.o(.text) for my_sqrt
    mpu6050.o(.text) refers to flash.o(.text) for WRITE_PARM
    mpu6050.o(.text) refers to i2c_soft.o(.data) for I2C_FastMode
    mpu6050.o(.text) refers to mpu6050.o(.bss) for mpu6050_buffer
    mpu6050.o(.text) refers to mpu6050.o(.data) for mpu6050_ok
    mpu6050.o(.text) refers to parameter.o(.bss) for sensor_setup
    mpu6050.o(.text) refers to rt_memclr_w.o(.text) for __aeabi_memclr4
    ak8975.o(.text) refers to time.o(.text) for Get_Cycle_T
    ak8975.o(.text) refers to f2d.o(x$fpl$f2d) for __aeabi_f2d
    ak8975.o(.text) refers to ddiv.o(x$fpl$ddiv) for __aeabi_ddiv
    ak8975.o(.text) refers to daddsub_clz.o(x$fpl$dadd) for __aeabi_dadd
    ak8975.o(.text) refers to d2f.o(x$fpl$d2f) for __aeabi_d2f
    ak8975.o(.text) refers to flash.o(.text) for WRITE_PARM
    ak8975.o(.text) refers to ak8975.o(.data) for ak8975_fc
    ak8975.o(.text) refers to ak8975.o(.bss) for MagSum
    ak8975.o(.text) refers to iic_hml.o(.text) for IICreadBytes
    ak8975.o(.text) refers to dflt_clz.o(x$fpl$dflt) for __aeabi_i2d
    ak8975.o(.text) refers to filter.o(.text) for IIR_I_Filter
    ak8975.o(.text) refers to dfix.o(x$fpl$dfix) for __aeabi_d2iz
    ak8975.o(.text) refers to stm32f4xx_gpio.o(.text) for GPIO_ReadInputDataBit
    bmp.o(.text) refers to iic_hml.o(.text) for IIC_Start
    bmp.o(.text) refers to time.o(.text) for Delay_us
    bmp.o(.text) refers to dflt_clz.o(x$fpl$dfltu) for __aeabi_ui2d
    bmp.o(.text) refers to ddiv.o(x$fpl$ddiv) for __aeabi_ddiv
    bmp.o(.text) refers to d2f.o(x$fpl$d2f) for __aeabi_d2f
    bmp.o(.text) refers to f2d.o(x$fpl$f2d) for __aeabi_f2d
    bmp.o(.text) refers to daddsub_clz.o(x$fpl$dadd) for __aeabi_dadd
    bmp.o(.text) refers to pow.o(i.__hardfp_pow) for __hardfp_pow
    bmp.o(.text) refers to daddsub_clz.o(x$fpl$drsb) for __aeabi_drsub
    bmp.o(.text) refers to dmul.o(x$fpl$dmul) for __aeabi_dmul
    bmp.o(.text) refers to llsdiv.o(.text) for __aeabi_ldivmod
    bmp.o(.text) refers to bmp.o(.data) for Temp_buffer
    bmp.o(.text) refers to bmp.o(.bss) for PROM_C
    bmp.o(.text) refers to usart.o(.bss) for Rc_Get_PWM
    bmp.o(.text) refers to rc.o(.data) for NS
    bmp.o(.text) refers to ffltll_clz.o(x$fpl$ffltll) for __aeabi_l2f
    bmp.o(.text) refers to fabs.o(i.__hardfp_fabs) for __hardfp_fabs
    bmp.o(.text) refers to drleqf.o(x$fpl$drleqf) for __aeabi_cdrcmple
    bmp.o(.text) refers to fly_mode.o(.bss) for mode
    bmp.o(.text) refers to imu.o(.data) for Pit_fc
    ultrasonic.o(.text) refers to usart.o(.text) for Usart3_Init
    ultrasonic.o(.text) refers to f2d.o(x$fpl$f2d) for __aeabi_f2d
    ultrasonic.o(.text) refers to ddiv.o(x$fpl$ddiv) for __aeabi_ddiv
    ultrasonic.o(.text) refers to d2f.o(x$fpl$d2f) for __aeabi_d2f
    ultrasonic.o(.text) refers to ultrasonic.o(.bss) for ultra
    ultrasonic.o(.text) refers to ultrasonic.o(.data) for ultra_start_f
    anotc_baro_ctrl.o(.text) refers to mymath.o(.text) for my_sqrt
    anotc_baro_ctrl.o(.text) refers to filter.o(.text) for Moving_Average
    anotc_baro_ctrl.o(.text) refers to bmp.o(.text) for MS5611_ThreadNew
    anotc_baro_ctrl.o(.text) refers to alt_fushion.o(.text) for ukf_baro_task1
    anotc_baro_ctrl.o(.text) refers to anotc_baro_ctrl.o(.data) for com_tar
    anotc_baro_ctrl.o(.text) refers to bmp.o(.data) for baroAlt_fc
    anotc_baro_ctrl.o(.text) refers to bmp.o(.bss) for baro
    anotc_baro_ctrl.o(.text) refers to imu.o(.bss) for reference_vr_imd_down_fc
    anotc_baro_ctrl.o(.text) refers to anotc_baro_ctrl.o(.bss) for baro_fusion
    anotc_baro_ctrl.o(.text) refers to alt_fushion.o(.bss) for acc_body
    anotc_baro_ctrl.o(.text) refers to fly_mode.o(.bss) for mode
    anotc_baro_ctrl.o(.text) refers to alt_fushion.o(.data) for ALT_VEL_BMP_UKF_OLDX
    kf_oldx.o(.text) refers to fabs.o(i.__hardfp_fabs) for __hardfp_fabs
    kf_oldx.o(.text) refers to drleqf.o(x$fpl$drleqf) for __aeabi_cdrcmple
    kf_oldx.o(.text) refers to ddiv.o(x$fpl$ddiv) for __aeabi_ddiv
    kf_oldx.o(.text) refers to dmul.o(x$fpl$dmul) for __aeabi_dmul
    kf_oldx.o(.text) refers to daddsub_clz.o(x$fpl$drsb) for __aeabi_drsub
    kf_oldx.o(.text) refers to daddsub_clz.o(x$fpl$dsub) for __aeabi_dsub
    kf_oldx.o(.text) refers to daddsub_clz.o(x$fpl$dadd) for __aeabi_dadd
    kf_oldx.o(.text) refers to basic.o(x$fpl$basic) for __aeabi_dneg
    kf_oldx.o(.text) refers to rt_nonfinite.o(.text) for rtIsNaN
    kf_oldx.o(.text) refers to deqf.o(x$fpl$deqf) for __aeabi_cdcmpeq
    kf_oldx.o(.text) refers to sqrt.o(i.__hardfp_sqrt) for __hardfp_sqrt
    kf_oldx.o(.text) refers to dleqf.o(x$fpl$dleqf) for __aeabi_cdcmple
    kf_oldx.o(.text) refers to floor.o(i.__hardfp_floor) for __hardfp_floor
    kf_oldx.o(.text) refers to rt_nonfinite.o(.data) for rtNaN
    kf_oldx.o(.text) refers to pow.o(i.__hardfp_pow) for __hardfp_pow
    kf_oldx.o(.text) refers to dflt_clz.o(x$fpl$dflt) for __aeabi_i2d
    kf_oldx.o(.text) refers to kf_oldx.o(.constdata) for iv0
    eso.o(.text) refers to f2d.o(x$fpl$f2d) for __aeabi_f2d
    eso.o(.text) refers to fabs.o(i.__hardfp_fabs) for __hardfp_fabs
    eso.o(.text) refers to dmul.o(x$fpl$dmul) for __aeabi_dmul
    eso.o(.text) refers to daddsub_clz.o(x$fpl$dadd) for __aeabi_dadd
    eso.o(.text) refers to d2f.o(x$fpl$d2f) for __aeabi_d2f
    eso.o(.text) refers to drleqf.o(x$fpl$drleqf) for __aeabi_cdrcmple
    eso.o(.text) refers to pow.o(i.__hardfp_pow) for __hardfp_pow
    eso.o(.text) refers to daddsub_clz.o(x$fpl$drsb) for __aeabi_drsub
    eso.o(.text) refers to ddiv.o(x$fpl$ddiv) for __aeabi_ddiv
    eso.o(.text) refers to dleqf.o(x$fpl$dleqf) for __aeabi_cdcmple
    eso.o(.text) refers to eso.o(.data) for Thr_tmp
    rt_nonfinite.o(.text) refers to rtgetnan.o(.text) for rtGetNaN
    rt_nonfinite.o(.text) refers to rtgetinf.o(.text) for rtGetInf
    rt_nonfinite.o(.text) refers to deqf.o(x$fpl$deqf) for __aeabi_cdcmpeq
    rt_nonfinite.o(.text) refers to rt_nonfinite.o(.data) for rtNaN
    rtgetinf.o(.text) refers to f2d.o(x$fpl$f2d) for __aeabi_f2d
    rtgetnan.o(.text) refers to f2d.o(x$fpl$f2d) for __aeabi_f2d
    llsdiv.o(.text) refers to lludivv7m.o(.text) for __aeabi_uldivmod
    __main.o(!!!main) refers to __rtentry.o(.ARM.Collect$$rtentry$$00000000) for __rt_entry
    basic.o(x$fpl$basic) refers (Special) to usenofp.o(x$fpl$usenofp) for __I$use$fp
    d2f.o(x$fpl$d2f) refers (Special) to usenofp.o(x$fpl$usenofp) for __I$use$fp
    d2f.o(x$fpl$d2f) refers to fretinf.o(x$fpl$fretinf) for __fpl_fretinf
    d2f.o(x$fpl$d2f) refers to dnaninf.o(x$fpl$dnaninf) for __fpl_dnaninf
    daddsub_clz.o(x$fpl$dadd) refers (Special) to usenofp.o(x$fpl$usenofp) for __I$use$fp
    daddsub_clz.o(x$fpl$dadd) refers to daddsub_clz.o(x$fpl$dsub) for _dsub1
    daddsub_clz.o(x$fpl$dadd) refers to dretinf.o(x$fpl$dretinf) for __fpl_dretinf
    daddsub_clz.o(x$fpl$dadd) refers to dnaninf.o(x$fpl$dnaninf) for __fpl_dnaninf
    daddsub_clz.o(x$fpl$drsb) refers (Special) to usenofp.o(x$fpl$usenofp) for __I$use$fp
    daddsub_clz.o(x$fpl$drsb) refers to daddsub_clz.o(x$fpl$dadd) for _dadd1
    daddsub_clz.o(x$fpl$drsb) refers to daddsub_clz.o(x$fpl$dsub) for _dsub1
    daddsub_clz.o(x$fpl$dsub) refers (Special) to usenofp.o(x$fpl$usenofp) for __I$use$fp
    daddsub_clz.o(x$fpl$dsub) refers to daddsub_clz.o(x$fpl$dadd) for _dadd1
    daddsub_clz.o(x$fpl$dsub) refers to dnaninf.o(x$fpl$dnaninf) for __fpl_dnaninf
    ddiv.o(x$fpl$drdiv) refers (Special) to usenofp.o(x$fpl$usenofp) for __I$use$fp
    ddiv.o(x$fpl$drdiv) refers to ddiv.o(x$fpl$ddiv) for ddiv_entry
    ddiv.o(x$fpl$ddiv) refers (Special) to usenofp.o(x$fpl$usenofp) for __I$use$fp
    ddiv.o(x$fpl$ddiv) refers to dretinf.o(x$fpl$dretinf) for __fpl_dretinf
    ddiv.o(x$fpl$ddiv) refers to dnaninf.o(x$fpl$dnaninf) for __fpl_dnaninf
    deqf.o(x$fpl$deqf) refers (Special) to usenofp.o(x$fpl$usenofp) for __I$use$fp
    deqf.o(x$fpl$deqf) refers to dnaninf.o(x$fpl$dnaninf) for __fpl_dnaninf
    deqf.o(x$fpl$deqf) refers to dcmpi.o(x$fpl$dcmpinf) for __fpl_dcmp_Inf
    dfix.o(x$fpl$dfix) refers (Special) to usenofp.o(x$fpl$usenofp) for __I$use$fp
    dfix.o(x$fpl$dfix) refers to dnaninf.o(x$fpl$dnaninf) for __fpl_dnaninf
    dfix.o(x$fpl$dfixr) refers (Special) to usenofp.o(x$fpl$usenofp) for __I$use$fp
    dfix.o(x$fpl$dfixr) refers to dnaninf.o(x$fpl$dnaninf) for __fpl_dnaninf
    dflt_clz.o(x$fpl$dfltu) refers (Special) to usenofp.o(x$fpl$usenofp) for __I$use$fp
    dflt_clz.o(x$fpl$dflt) refers (Special) to usenofp.o(x$fpl$usenofp) for __I$use$fp
    dflt_clz.o(x$fpl$dfltn) refers (Special) to usenofp.o(x$fpl$usenofp) for __I$use$fp
    dleqf.o(x$fpl$dleqf) refers (Special) to usenofp.o(x$fpl$usenofp) for __I$use$fp
    dleqf.o(x$fpl$dleqf) refers to dnaninf.o(x$fpl$dnaninf) for __fpl_dnaninf
    dleqf.o(x$fpl$dleqf) refers to dcmpi.o(x$fpl$dcmpinf) for __fpl_dcmp_Inf
    dmul.o(x$fpl$dmul) refers (Special) to usenofp.o(x$fpl$usenofp) for __I$use$fp
    dmul.o(x$fpl$dmul) refers to dretinf.o(x$fpl$dretinf) for __fpl_dretinf
    dmul.o(x$fpl$dmul) refers to dnaninf.o(x$fpl$dnaninf) for __fpl_dnaninf
    drleqf.o(x$fpl$drleqf) refers (Special) to usenofp.o(x$fpl$usenofp) for __I$use$fp
    drleqf.o(x$fpl$drleqf) refers to dleqf.o(x$fpl$dleqf) for __fpl_dcmple_InfNaN
    f2d.o(x$fpl$f2d) refers (Special) to usenofp.o(x$fpl$usenofp) for __I$use$fp
    f2d.o(x$fpl$f2d) refers to fnaninf.o(x$fpl$fnaninf) for __fpl_fnaninf
    f2d.o(x$fpl$f2d) refers to dretinf.o(x$fpl$dretinf) for __fpl_dretinf
    ffltll_clz.o(x$fpl$ffltll) refers (Special) to usenofp.o(x$fpl$usenofp) for __I$use$fp
    asin.o(i.__hardfp_asin) refers (Special) to usenofp.o(x$fpl$usenofp) for __I$use$fp
    asin.o(i.__hardfp_asin) refers to dunder.o(i.__mathlib_dbl_infnan) for __mathlib_dbl_infnan
    asin.o(i.__hardfp_asin) refers to dmul.o(x$fpl$dmul) for __aeabi_dmul
    asin.o(i.__hardfp_asin) refers to daddsub_clz.o(x$fpl$dadd) for __aeabi_dadd
    asin.o(i.__hardfp_asin) refers to _rserrno.o(.text) for __set_errno
    asin.o(i.__hardfp_asin) refers to dunder.o(i.__mathlib_dbl_invalid) for __mathlib_dbl_invalid
    asin.o(i.__hardfp_asin) refers to fpclassify.o(i.__ARM_fpclassify) for __ARM_fpclassify
    asin.o(i.__hardfp_asin) refers to dunder.o(i.__mathlib_dbl_underflow) for __mathlib_dbl_underflow
    asin.o(i.__hardfp_asin) refers to poly.o(i.__kernel_poly) for __kernel_poly
    asin.o(i.__hardfp_asin) refers to ddiv.o(x$fpl$ddiv) for __aeabi_ddiv
    asin.o(i.__hardfp_asin) refers to fabs.o(i.fabs) for fabs
    asin.o(i.__hardfp_asin) refers to daddsub_clz.o(x$fpl$drsb) for __aeabi_drsub
    asin.o(i.__hardfp_asin) refers to sqrt.o(i.sqrt) for sqrt
    asin.o(i.__hardfp_asin) refers to daddsub_clz.o(x$fpl$dsub) for __aeabi_dsub
    asin.o(i.__hardfp_asin) refers to basic.o(x$fpl$basic) for __aeabi_dneg
    asin.o(i.__hardfp_asin) refers to asin.o(.constdata) for .constdata
    asin.o(i.__softfp_asin) refers (Special) to usenofp.o(x$fpl$usenofp) for __I$use$fp
    asin.o(i.__softfp_asin) refers to asin.o(i.__hardfp_asin) for __hardfp_asin
    asin.o(i.asin) refers (Special) to usenofp.o(x$fpl$usenofp) for __I$use$fp
    asin.o(i.asin) refers to asin.o(i.__hardfp_asin) for __hardfp_asin
    asin.o(.constdata) refers (Special) to usenofp.o(x$fpl$usenofp) for __I$use$fp
    asin_x.o(i.____hardfp_asin$lsc) refers (Special) to usenofp.o(x$fpl$usenofp) for __I$use$fp
    asin_x.o(i.____hardfp_asin$lsc) refers to dunder.o(i.__mathlib_dbl_infnan) for __mathlib_dbl_infnan
    asin_x.o(i.____hardfp_asin$lsc) refers to dmul.o(x$fpl$dmul) for __aeabi_dmul
    asin_x.o(i.____hardfp_asin$lsc) refers to daddsub_clz.o(x$fpl$dadd) for __aeabi_dadd
    asin_x.o(i.____hardfp_asin$lsc) refers to _rserrno.o(.text) for __set_errno
    asin_x.o(i.____hardfp_asin$lsc) refers to poly.o(i.__kernel_poly) for __kernel_poly
    asin_x.o(i.____hardfp_asin$lsc) refers to ddiv.o(x$fpl$ddiv) for __aeabi_ddiv
    asin_x.o(i.____hardfp_asin$lsc) refers to fabs.o(i.fabs) for fabs
    asin_x.o(i.____hardfp_asin$lsc) refers to daddsub_clz.o(x$fpl$drsb) for __aeabi_drsub
    asin_x.o(i.____hardfp_asin$lsc) refers to sqrt.o(i.sqrt) for sqrt
    asin_x.o(i.____hardfp_asin$lsc) refers to daddsub_clz.o(x$fpl$dsub) for __aeabi_dsub
    asin_x.o(i.____hardfp_asin$lsc) refers to basic.o(x$fpl$basic) for __aeabi_dneg
    asin_x.o(i.____hardfp_asin$lsc) refers to asin_x.o(.constdata) for .constdata
    asin_x.o(i.____softfp_asin$lsc) refers (Special) to usenofp.o(x$fpl$usenofp) for __I$use$fp
    asin_x.o(i.____softfp_asin$lsc) refers to asin_x.o(i.____hardfp_asin$lsc) for ____hardfp_asin$lsc
    asin_x.o(i.__asin$lsc) refers (Special) to usenofp.o(x$fpl$usenofp) for __I$use$fp
    asin_x.o(i.__asin$lsc) refers to asin_x.o(i.____hardfp_asin$lsc) for ____hardfp_asin$lsc
    asin_x.o(.constdata) refers (Special) to usenofp.o(x$fpl$usenofp) for __I$use$fp
    asinf.o(i.__hardfp_asinf) refers (Special) to usenofp.o(x$fpl$usenofp) for __I$use$fp
    asinf.o(i.__hardfp_asinf) refers to sqrtf.o(i.sqrtf) for sqrtf
    asinf.o(i.__hardfp_asinf) refers to fpclassifyf.o(i.__ARM_fpclassifyf) for __ARM_fpclassifyf
    asinf.o(i.__hardfp_asinf) refers to funder.o(i.__mathlib_flt_underflow) for __mathlib_flt_underflow
    asinf.o(i.__hardfp_asinf) refers to funder.o(i.__mathlib_flt_infnan) for __mathlib_flt_infnan
    asinf.o(i.__hardfp_asinf) refers to _rserrno.o(.text) for __set_errno
    asinf.o(i.__hardfp_asinf) refers to funder.o(i.__mathlib_flt_invalid) for __mathlib_flt_invalid
    asinf.o(i.__softfp_asinf) refers (Special) to usenofp.o(x$fpl$usenofp) for __I$use$fp
    asinf.o(i.__softfp_asinf) refers to asinf.o(i.__hardfp_asinf) for __hardfp_asinf
    asinf.o(i.asinf) refers (Special) to usenofp.o(x$fpl$usenofp) for __I$use$fp
    asinf.o(i.asinf) refers to asinf.o(i.__hardfp_asinf) for __hardfp_asinf
    asinf_x.o(i.____hardfp_asinf$lsc) refers (Special) to usenofp.o(x$fpl$usenofp) for __I$use$fp
    asinf_x.o(i.____hardfp_asinf$lsc) refers to sqrtf.o(i.sqrtf) for sqrtf
    asinf_x.o(i.____hardfp_asinf$lsc) refers to funder.o(i.__mathlib_flt_infnan) for __mathlib_flt_infnan
    asinf_x.o(i.____hardfp_asinf$lsc) refers to _rserrno.o(.text) for __set_errno
    asinf_x.o(i.____softfp_asinf$lsc) refers (Special) to usenofp.o(x$fpl$usenofp) for __I$use$fp
    asinf_x.o(i.____softfp_asinf$lsc) refers to asinf_x.o(i.____hardfp_asinf$lsc) for ____hardfp_asinf$lsc
    asinf_x.o(i.__asinf$lsc) refers (Special) to usenofp.o(x$fpl$usenofp) for __I$use$fp
    asinf_x.o(i.__asinf$lsc) refers to asinf_x.o(i.____hardfp_asinf$lsc) for ____hardfp_asinf$lsc
    atan.o(i.__hardfp_atan) refers (Special) to usenofp.o(x$fpl$usenofp) for __I$use$fp
    atan.o(i.__hardfp_atan) refers to dunder.o(i.__mathlib_dbl_infnan) for __mathlib_dbl_infnan
    atan.o(i.__hardfp_atan) refers to fpclassify.o(i.__ARM_fpclassify) for __ARM_fpclassify
    atan.o(i.__hardfp_atan) refers to dunder.o(i.__mathlib_dbl_underflow) for __mathlib_dbl_underflow
    atan.o(i.__hardfp_atan) refers to fabs.o(i.fabs) for fabs
    atan.o(i.__hardfp_atan) refers to daddsub_clz.o(x$fpl$dadd) for __aeabi_dadd
    atan.o(i.__hardfp_atan) refers to dmul.o(x$fpl$dmul) for __aeabi_dmul
    atan.o(i.__hardfp_atan) refers to daddsub_clz.o(x$fpl$dsub) for __aeabi_dsub
    atan.o(i.__hardfp_atan) refers to ddiv.o(x$fpl$ddiv) for __aeabi_ddiv
    atan.o(i.__hardfp_atan) refers to poly.o(i.__kernel_poly) for __kernel_poly
    atan.o(i.__hardfp_atan) refers to daddsub_clz.o(x$fpl$drsb) for __aeabi_drsub
    atan.o(i.__hardfp_atan) refers to basic.o(x$fpl$basic) for __aeabi_dneg
    atan.o(i.__hardfp_atan) refers to atan.o(.constdata) for .constdata
    atan.o(i.__softfp_atan) refers (Special) to usenofp.o(x$fpl$usenofp) for __I$use$fp
    atan.o(i.__softfp_atan) refers to atan.o(i.__hardfp_atan) for __hardfp_atan
    atan.o(i.atan) refers (Special) to usenofp.o(x$fpl$usenofp) for __I$use$fp
    atan.o(i.atan) refers to atan.o(i.__hardfp_atan) for __hardfp_atan
    atan.o(.constdata) refers (Special) to usenofp.o(x$fpl$usenofp) for __I$use$fp
    atan_x.o(i.____hardfp_atan$lsc) refers (Special) to usenofp.o(x$fpl$usenofp) for __I$use$fp
    atan_x.o(i.____hardfp_atan$lsc) refers to dunder.o(i.__mathlib_dbl_infnan) for __mathlib_dbl_infnan
    atan_x.o(i.____hardfp_atan$lsc) refers to fabs.o(i.fabs) for fabs
    atan_x.o(i.____hardfp_atan$lsc) refers to daddsub_clz.o(x$fpl$dadd) for __aeabi_dadd
    atan_x.o(i.____hardfp_atan$lsc) refers to dmul.o(x$fpl$dmul) for __aeabi_dmul
    atan_x.o(i.____hardfp_atan$lsc) refers to daddsub_clz.o(x$fpl$dsub) for __aeabi_dsub
    atan_x.o(i.____hardfp_atan$lsc) refers to ddiv.o(x$fpl$ddiv) for __aeabi_ddiv
    atan_x.o(i.____hardfp_atan$lsc) refers to poly.o(i.__kernel_poly) for __kernel_poly
    atan_x.o(i.____hardfp_atan$lsc) refers to daddsub_clz.o(x$fpl$drsb) for __aeabi_drsub
    atan_x.o(i.____hardfp_atan$lsc) refers to basic.o(x$fpl$basic) for __aeabi_dneg
    atan_x.o(i.____hardfp_atan$lsc) refers to atan_x.o(.constdata) for .constdata
    atan_x.o(i.____softfp_atan$lsc) refers (Special) to usenofp.o(x$fpl$usenofp) for __I$use$fp
    atan_x.o(i.____softfp_atan$lsc) refers to atan_x.o(i.____hardfp_atan$lsc) for ____hardfp_atan$lsc
    atan_x.o(i.__atan$lsc) refers (Special) to usenofp.o(x$fpl$usenofp) for __I$use$fp
    atan_x.o(i.__atan$lsc) refers to atan_x.o(i.____hardfp_atan$lsc) for ____hardfp_atan$lsc
    atan_x.o(.constdata) refers (Special) to usenofp.o(x$fpl$usenofp) for __I$use$fp
    atan2.o(i.__hardfp_atan2) refers (Special) to usenofp.o(x$fpl$usenofp) for __I$use$fp
    atan2.o(i.__hardfp_atan2) refers to dunder.o(i.__mathlib_dbl_infnan2) for __mathlib_dbl_infnan2
    atan2.o(i.__hardfp_atan2) refers to atan.o(i.atan) for atan
    atan2.o(i.__hardfp_atan2) refers to basic.o(x$fpl$basic) for __aeabi_dneg
    atan2.o(i.__hardfp_atan2) refers to ddiv.o(x$fpl$ddiv) for __aeabi_ddiv
    atan2.o(i.__hardfp_atan2) refers to fabs.o(i.fabs) for fabs
    atan2.o(i.__hardfp_atan2) refers to daddsub_clz.o(x$fpl$dsub) for __aeabi_dsub
    atan2.o(i.__hardfp_atan2) refers to daddsub_clz.o(x$fpl$drsb) for __aeabi_drsub
    atan2.o(i.__hardfp_atan2) refers to qnan.o(.constdata) for __mathlib_zero
    atan2.o(i.__softfp_atan2) refers (Special) to usenofp.o(x$fpl$usenofp) for __I$use$fp
    atan2.o(i.__softfp_atan2) refers to atan2.o(i.__hardfp_atan2) for __hardfp_atan2
    atan2.o(i.atan2) refers (Special) to usenofp.o(x$fpl$usenofp) for __I$use$fp
    atan2.o(i.atan2) refers to atan2.o(i.__hardfp_atan2) for __hardfp_atan2
    atan2_x.o(i.____hardfp_atan2$lsc) refers (Special) to usenofp.o(x$fpl$usenofp) for __I$use$fp
    atan2_x.o(i.____hardfp_atan2$lsc) refers to dunder.o(i.__mathlib_dbl_infnan2) for __mathlib_dbl_infnan2
    atan2_x.o(i.____hardfp_atan2$lsc) refers to atan.o(i.atan) for atan
    atan2_x.o(i.____hardfp_atan2$lsc) refers to _rserrno.o(.text) for __set_errno
    atan2_x.o(i.____hardfp_atan2$lsc) refers to basic.o(x$fpl$basic) for __aeabi_dneg
    atan2_x.o(i.____hardfp_atan2$lsc) refers to ddiv.o(x$fpl$ddiv) for __aeabi_ddiv
    atan2_x.o(i.____hardfp_atan2$lsc) refers to fabs.o(i.fabs) for fabs
    atan2_x.o(i.____hardfp_atan2$lsc) refers to daddsub_clz.o(x$fpl$dsub) for __aeabi_dsub
    atan2_x.o(i.____hardfp_atan2$lsc) refers to daddsub_clz.o(x$fpl$drsb) for __aeabi_drsub
    atan2_x.o(i.____hardfp_atan2$lsc) refers to qnan.o(.constdata) for __mathlib_zero
    atan2_x.o(i.____softfp_atan2$lsc) refers (Special) to usenofp.o(x$fpl$usenofp) for __I$use$fp
    atan2_x.o(i.____softfp_atan2$lsc) refers to atan2_x.o(i.____hardfp_atan2$lsc) for ____hardfp_atan2$lsc
    atan2_x.o(i.__atan2$lsc) refers (Special) to usenofp.o(x$fpl$usenofp) for __I$use$fp
    atan2_x.o(i.__atan2$lsc) refers to atan2_x.o(i.____hardfp_atan2$lsc) for ____hardfp_atan2$lsc
    atan2f.o(i.__hardfp_atan2f) refers (Special) to usenofp.o(x$fpl$usenofp) for __I$use$fp
    atan2f.o(i.__hardfp_atan2f) refers to fpclassifyf.o(i.__ARM_fpclassifyf) for __ARM_fpclassifyf
    atan2f.o(i.__hardfp_atan2f) refers to funder.o(i.__mathlib_flt_underflow) for __mathlib_flt_underflow
    atan2f.o(i.__hardfp_atan2f) refers to funder.o(i.__mathlib_flt_infnan2) for __mathlib_flt_infnan2
    atan2f.o(i.__softfp_atan2f) refers (Special) to usenofp.o(x$fpl$usenofp) for __I$use$fp
    atan2f.o(i.__softfp_atan2f) refers to atan2f.o(i.__hardfp_atan2f) for __hardfp_atan2f
    atan2f.o(i.atan2f) refers (Special) to usenofp.o(x$fpl$usenofp) for __I$use$fp
    atan2f.o(i.atan2f) refers to atan2f.o(i.__hardfp_atan2f) for __hardfp_atan2f
    atan2f_x.o(i.____hardfp_atan2f$lsc) refers (Special) to usenofp.o(x$fpl$usenofp) for __I$use$fp
    atan2f_x.o(i.____hardfp_atan2f$lsc) refers to funder.o(i.__mathlib_flt_infnan2) for __mathlib_flt_infnan2
    atan2f_x.o(i.____hardfp_atan2f$lsc) refers to _rserrno.o(.text) for __set_errno
    atan2f_x.o(i.____softfp_atan2f$lsc) refers (Special) to usenofp.o(x$fpl$usenofp) for __I$use$fp
    atan2f_x.o(i.____softfp_atan2f$lsc) refers to atan2f_x.o(i.____hardfp_atan2f$lsc) for ____hardfp_atan2f$lsc
    atan2f_x.o(i.__atan2f$lsc) refers (Special) to usenofp.o(x$fpl$usenofp) for __I$use$fp
    atan2f_x.o(i.__atan2f$lsc) refers to atan2f_x.o(i.____hardfp_atan2f$lsc) for ____hardfp_atan2f$lsc
    cos.o(i.__hardfp_cos) refers (Special) to usenofp.o(x$fpl$usenofp) for __I$use$fp
    cos.o(i.__hardfp_cos) refers to _rserrno.o(.text) for __set_errno
    cos.o(i.__hardfp_cos) refers to dunder.o(i.__mathlib_dbl_invalid) for __mathlib_dbl_invalid
    cos.o(i.__hardfp_cos) refers to dunder.o(i.__mathlib_dbl_infnan) for __mathlib_dbl_infnan
    cos.o(i.__hardfp_cos) refers to rred.o(i.__ieee754_rem_pio2) for __ieee754_rem_pio2
    cos.o(i.__hardfp_cos) refers to sin_i.o(i.__kernel_sin) for __kernel_sin
    cos.o(i.__hardfp_cos) refers to cos_i.o(i.__kernel_cos) for __kernel_cos
    cos.o(i.__hardfp_cos) refers to basic.o(x$fpl$basic) for __aeabi_dneg
    cos.o(i.__softfp_cos) refers (Special) to usenofp.o(x$fpl$usenofp) for __I$use$fp
    cos.o(i.__softfp_cos) refers to cos.o(i.__hardfp_cos) for __hardfp_cos
    cos.o(i.cos) refers (Special) to usenofp.o(x$fpl$usenofp) for __I$use$fp
    cos.o(i.cos) refers to cos.o(i.__hardfp_cos) for __hardfp_cos
    cos_x.o(i.____hardfp_cos$lsc) refers (Special) to usenofp.o(x$fpl$usenofp) for __I$use$fp
    cos_x.o(i.____hardfp_cos$lsc) refers to _rserrno.o(.text) for __set_errno
    cos_x.o(i.____hardfp_cos$lsc) refers to dunder.o(i.__mathlib_dbl_infnan) for __mathlib_dbl_infnan
    cos_x.o(i.____hardfp_cos$lsc) refers to rred.o(i.__ieee754_rem_pio2) for __ieee754_rem_pio2
    cos_x.o(i.____hardfp_cos$lsc) refers to sin_i.o(i.__kernel_sin) for __kernel_sin
    cos_x.o(i.____hardfp_cos$lsc) refers to cos_i.o(i.__kernel_cos) for __kernel_cos
    cos_x.o(i.____hardfp_cos$lsc) refers to basic.o(x$fpl$basic) for __aeabi_dneg
    cos_x.o(i.____softfp_cos$lsc) refers (Special) to usenofp.o(x$fpl$usenofp) for __I$use$fp
    cos_x.o(i.____softfp_cos$lsc) refers to cos_x.o(i.____hardfp_cos$lsc) for ____hardfp_cos$lsc
    cos_x.o(i.__cos$lsc) refers (Special) to usenofp.o(x$fpl$usenofp) for __I$use$fp
    cos_x.o(i.__cos$lsc) refers to cos_x.o(i.____hardfp_cos$lsc) for ____hardfp_cos$lsc
    cosf.o(i.__hardfp_cosf) refers (Special) to usenofp.o(x$fpl$usenofp) for __I$use$fp
    cosf.o(i.__hardfp_cosf) refers to rredf.o(i.__mathlib_rredf2) for __mathlib_rredf2
    cosf.o(i.__hardfp_cosf) refers to _rserrno.o(.text) for __set_errno
    cosf.o(i.__hardfp_cosf) refers to funder.o(i.__mathlib_flt_invalid) for __mathlib_flt_invalid
    cosf.o(i.__hardfp_cosf) refers to funder.o(i.__mathlib_flt_infnan) for __mathlib_flt_infnan
    cosf.o(i.__softfp_cosf) refers (Special) to usenofp.o(x$fpl$usenofp) for __I$use$fp
    cosf.o(i.__softfp_cosf) refers to cosf.o(i.__hardfp_cosf) for __hardfp_cosf
    cosf.o(i.cosf) refers (Special) to usenofp.o(x$fpl$usenofp) for __I$use$fp
    cosf.o(i.cosf) refers to cosf.o(i.__hardfp_cosf) for __hardfp_cosf
    cosf_x.o(i.____hardfp_cosf$lsc) refers (Special) to usenofp.o(x$fpl$usenofp) for __I$use$fp
    cosf_x.o(i.____hardfp_cosf$lsc) refers to rredf.o(i.__mathlib_rredf2) for __mathlib_rredf2
    cosf_x.o(i.____hardfp_cosf$lsc) refers to _rserrno.o(.text) for __set_errno
    cosf_x.o(i.____hardfp_cosf$lsc) refers to funder.o(i.__mathlib_flt_infnan) for __mathlib_flt_infnan
    cosf_x.o(i.____softfp_cosf$lsc) refers (Special) to usenofp.o(x$fpl$usenofp) for __I$use$fp
    cosf_x.o(i.____softfp_cosf$lsc) refers to cosf_x.o(i.____hardfp_cosf$lsc) for ____hardfp_cosf$lsc
    cosf_x.o(i.__cosf$lsc) refers (Special) to usenofp.o(x$fpl$usenofp) for __I$use$fp
    cosf_x.o(i.__cosf$lsc) refers to cosf_x.o(i.____hardfp_cosf$lsc) for ____hardfp_cosf$lsc
    fabs.o(i.__hardfp_fabs) refers (Special) to usenofp.o(x$fpl$usenofp) for __I$use$fp
    fabs.o(i.__softfp_fabs) refers (Special) to usenofp.o(x$fpl$usenofp) for __I$use$fp
    fabs.o(i.fabs) refers (Special) to usenofp.o(x$fpl$usenofp) for __I$use$fp
    floor.o(i.__hardfp_floor) refers (Special) to usenofp.o(x$fpl$usenofp) for __I$use$fp
    floor.o(i.__hardfp_floor) refers to daddsub_clz.o(x$fpl$dadd) for __aeabi_dadd
    floor.o(i.__hardfp_floor) refers to drleqf.o(x$fpl$drleqf) for __aeabi_cdrcmple
    floor.o(i.__hardfp_floor) refers to daddsub_clz.o(x$fpl$drsb) for __aeabi_drsub
    floor.o(i.__softfp_floor) refers (Special) to usenofp.o(x$fpl$usenofp) for __I$use$fp
    floor.o(i.__softfp_floor) refers to floor.o(i.__hardfp_floor) for __hardfp_floor
    floor.o(i.floor) refers (Special) to usenofp.o(x$fpl$usenofp) for __I$use$fp
    floor.o(i.floor) refers to floor.o(i.__hardfp_floor) for __hardfp_floor
    pow.o(i.__hardfp_pow) refers (Special) to usenofp.o(x$fpl$usenofp) for __I$use$fp
    pow.o(i.__hardfp_pow) refers to dunder.o(i.__mathlib_dbl_infnan2) for __mathlib_dbl_infnan2
    pow.o(i.__hardfp_pow) refers to _rserrno.o(.text) for __set_errno
    pow.o(i.__hardfp_pow) refers to dunder.o(i.__mathlib_dbl_divzero) for __mathlib_dbl_divzero
    pow.o(i.__hardfp_pow) refers to basic.o(x$fpl$basic) for __aeabi_dneg
    pow.o(i.__hardfp_pow) refers to dunder.o(i.__mathlib_dbl_overflow) for __mathlib_dbl_overflow
    pow.o(i.__hardfp_pow) refers to ddiv.o(x$fpl$ddiv) for __aeabi_ddiv
    pow.o(i.__hardfp_pow) refers to sqrt.o(i.sqrt) for sqrt
    pow.o(i.__hardfp_pow) refers to fabs.o(i.fabs) for fabs
    pow.o(i.__hardfp_pow) refers to dflt_clz.o(x$fpl$dflt) for __aeabi_i2d
    pow.o(i.__hardfp_pow) refers to dunder.o(i.__mathlib_dbl_invalid) for __mathlib_dbl_invalid
    pow.o(i.__hardfp_pow) refers to dmul.o(x$fpl$dmul) for __aeabi_dmul
    pow.o(i.__hardfp_pow) refers to dunder.o(i.__mathlib_dbl_underflow) for __mathlib_dbl_underflow
    pow.o(i.__hardfp_pow) refers to daddsub_clz.o(x$fpl$dsub) for __aeabi_dsub
    pow.o(i.__hardfp_pow) refers to daddsub_clz.o(x$fpl$drsb) for __aeabi_drsub
    pow.o(i.__hardfp_pow) refers to qnan.o(.constdata) for __mathlib_zero
    pow.o(i.__hardfp_pow) refers to daddsub_clz.o(x$fpl$dadd) for __aeabi_dadd
    pow.o(i.__hardfp_pow) refers to poly.o(i.__kernel_poly) for __kernel_poly
    pow.o(i.__hardfp_pow) refers to pow.o(.constdata) for .constdata
    pow.o(i.__hardfp_pow) refers to drleqf.o(x$fpl$drleqf) for __aeabi_cdrcmple
    pow.o(i.__hardfp_pow) refers to scalbn.o(x$fpl$scalbn) for __ARM_scalbn
    pow.o(i.__hardfp_pow) refers to fpclassify.o(i.__ARM_fpclassify) for __ARM_fpclassify
    pow.o(i.__softfp_pow) refers (Special) to usenofp.o(x$fpl$usenofp) for __I$use$fp
    pow.o(i.__softfp_pow) refers to pow.o(i.__hardfp_pow) for __hardfp_pow
    pow.o(i.pow) refers (Special) to usenofp.o(x$fpl$usenofp) for __I$use$fp
    pow.o(i.pow) refers to pow.o(i.__hardfp_pow) for __hardfp_pow
    pow.o(.constdata) refers (Special) to usenofp.o(x$fpl$usenofp) for __I$use$fp
    pow_x.o(i.____hardfp_pow$lsc) refers (Special) to usenofp.o(x$fpl$usenofp) for __I$use$fp
    pow_x.o(i.____hardfp_pow$lsc) refers to dunder.o(i.__mathlib_dbl_infnan2) for __mathlib_dbl_infnan2
    pow_x.o(i.____hardfp_pow$lsc) refers to _rserrno.o(.text) for __set_errno
    pow_x.o(i.____hardfp_pow$lsc) refers to basic.o(x$fpl$basic) for __aeabi_dneg
    pow_x.o(i.____hardfp_pow$lsc) refers to ddiv.o(x$fpl$ddiv) for __aeabi_ddiv
    pow_x.o(i.____hardfp_pow$lsc) refers to sqrt.o(i.sqrt) for sqrt
    pow_x.o(i.____hardfp_pow$lsc) refers to fabs.o(i.fabs) for fabs
    pow_x.o(i.____hardfp_pow$lsc) refers to dflt_clz.o(x$fpl$dflt) for __aeabi_i2d
    pow_x.o(i.____hardfp_pow$lsc) refers to dmul.o(x$fpl$dmul) for __aeabi_dmul
    pow_x.o(i.____hardfp_pow$lsc) refers to daddsub_clz.o(x$fpl$dsub) for __aeabi_dsub
    pow_x.o(i.____hardfp_pow$lsc) refers to daddsub_clz.o(x$fpl$drsb) for __aeabi_drsub
    pow_x.o(i.____hardfp_pow$lsc) refers to qnan.o(.constdata) for __mathlib_zero
    pow_x.o(i.____hardfp_pow$lsc) refers to daddsub_clz.o(x$fpl$dadd) for __aeabi_dadd
    pow_x.o(i.____hardfp_pow$lsc) refers to poly.o(i.__kernel_poly) for __kernel_poly
    pow_x.o(i.____hardfp_pow$lsc) refers to pow_x.o(.constdata) for .constdata
    pow_x.o(i.____hardfp_pow$lsc) refers to drleqf.o(x$fpl$drleqf) for __aeabi_cdrcmple
    pow_x.o(i.____hardfp_pow$lsc) refers to scalbn.o(x$fpl$scalbn) for __ARM_scalbn
    pow_x.o(i.____softfp_pow$lsc) refers (Special) to usenofp.o(x$fpl$usenofp) for __I$use$fp
    pow_x.o(i.____softfp_pow$lsc) refers to pow_x.o(i.____hardfp_pow$lsc) for ____hardfp_pow$lsc
    pow_x.o(i.__pow$lsc) refers (Special) to usenofp.o(x$fpl$usenofp) for __I$use$fp
    pow_x.o(i.__pow$lsc) refers to pow_x.o(i.____hardfp_pow$lsc) for ____hardfp_pow$lsc
    pow_x.o(.constdata) refers (Special) to usenofp.o(x$fpl$usenofp) for __I$use$fp
    sin.o(i.__hardfp_sin) refers (Special) to usenofp.o(x$fpl$usenofp) for __I$use$fp
    sin.o(i.__hardfp_sin) refers to _rserrno.o(.text) for __set_errno
    sin.o(i.__hardfp_sin) refers to dunder.o(i.__mathlib_dbl_invalid) for __mathlib_dbl_invalid
    sin.o(i.__hardfp_sin) refers to dunder.o(i.__mathlib_dbl_infnan) for __mathlib_dbl_infnan
    sin.o(i.__hardfp_sin) refers to rred.o(i.__ieee754_rem_pio2) for __ieee754_rem_pio2
    sin.o(i.__hardfp_sin) refers to cos_i.o(i.__kernel_cos) for __kernel_cos
    sin.o(i.__hardfp_sin) refers to basic.o(x$fpl$basic) for __aeabi_dneg
    sin.o(i.__hardfp_sin) refers to sin_i.o(i.__kernel_sin) for __kernel_sin
    sin.o(i.__softfp_sin) refers (Special) to usenofp.o(x$fpl$usenofp) for __I$use$fp
    sin.o(i.__softfp_sin) refers to sin.o(i.__hardfp_sin) for __hardfp_sin
    sin.o(i.sin) refers (Special) to usenofp.o(x$fpl$usenofp) for __I$use$fp
    sin.o(i.sin) refers to sin.o(i.__hardfp_sin) for __hardfp_sin
    sin_x.o(i.____hardfp_sin$lsc) refers (Special) to usenofp.o(x$fpl$usenofp) for __I$use$fp
    sin_x.o(i.____hardfp_sin$lsc) refers to _rserrno.o(.text) for __set_errno
    sin_x.o(i.____hardfp_sin$lsc) refers to dunder.o(i.__mathlib_dbl_infnan) for __mathlib_dbl_infnan
    sin_x.o(i.____hardfp_sin$lsc) refers to rred.o(i.__ieee754_rem_pio2) for __ieee754_rem_pio2
    sin_x.o(i.____hardfp_sin$lsc) refers to cos_i.o(i.__kernel_cos) for __kernel_cos
    sin_x.o(i.____hardfp_sin$lsc) refers to basic.o(x$fpl$basic) for __aeabi_dneg
    sin_x.o(i.____hardfp_sin$lsc) refers to sin_i.o(i.__kernel_sin) for __kernel_sin
    sin_x.o(i.____softfp_sin$lsc) refers (Special) to usenofp.o(x$fpl$usenofp) for __I$use$fp
    sin_x.o(i.____softfp_sin$lsc) refers to sin_x.o(i.____hardfp_sin$lsc) for ____hardfp_sin$lsc
    sin_x.o(i.__sin$lsc) refers (Special) to usenofp.o(x$fpl$usenofp) for __I$use$fp
    sin_x.o(i.__sin$lsc) refers to sin_x.o(i.____hardfp_sin$lsc) for ____hardfp_sin$lsc
    sinf.o(i.__hardfp_sinf) refers (Special) to usenofp.o(x$fpl$usenofp) for __I$use$fp
    sinf.o(i.__hardfp_sinf) refers to rredf.o(i.__mathlib_rredf2) for __mathlib_rredf2
    sinf.o(i.__hardfp_sinf) refers to fpclassifyf.o(i.__ARM_fpclassifyf) for __ARM_fpclassifyf
    sinf.o(i.__hardfp_sinf) refers to funder.o(i.__mathlib_flt_underflow) for __mathlib_flt_underflow
    sinf.o(i.__hardfp_sinf) refers to _rserrno.o(.text) for __set_errno
    sinf.o(i.__hardfp_sinf) refers to funder.o(i.__mathlib_flt_invalid) for __mathlib_flt_invalid
    sinf.o(i.__hardfp_sinf) refers to funder.o(i.__mathlib_flt_infnan) for __mathlib_flt_infnan
    sinf.o(i.__softfp_sinf) refers (Special) to usenofp.o(x$fpl$usenofp) for __I$use$fp
    sinf.o(i.__softfp_sinf) refers to sinf.o(i.__hardfp_sinf) for __hardfp_sinf
    sinf.o(i.sinf) refers (Special) to usenofp.o(x$fpl$usenofp) for __I$use$fp
    sinf.o(i.sinf) refers to sinf.o(i.__hardfp_sinf) for __hardfp_sinf
    sinf_x.o(i.____hardfp_sinf$lsc) refers (Special) to usenofp.o(x$fpl$usenofp) for __I$use$fp
    sinf_x.o(i.____hardfp_sinf$lsc) refers to rredf.o(i.__mathlib_rredf2) for __mathlib_rredf2
    sinf_x.o(i.____hardfp_sinf$lsc) refers to _rserrno.o(.text) for __set_errno
    sinf_x.o(i.____hardfp_sinf$lsc) refers to funder.o(i.__mathlib_flt_infnan) for __mathlib_flt_infnan
    sinf_x.o(i.____softfp_sinf$lsc) refers (Special) to usenofp.o(x$fpl$usenofp) for __I$use$fp
    sinf_x.o(i.____softfp_sinf$lsc) refers to sinf_x.o(i.____hardfp_sinf$lsc) for ____hardfp_sinf$lsc
    sinf_x.o(i.__sinf$lsc) refers (Special) to usenofp.o(x$fpl$usenofp) for __I$use$fp
    sinf_x.o(i.__sinf$lsc) refers to sinf_x.o(i.____hardfp_sinf$lsc) for ____hardfp_sinf$lsc
    sqrt.o(i.__hardfp_sqrt) refers (Special) to usenofp.o(x$fpl$usenofp) for __I$use$fp
    sqrt.o(i.__hardfp_sqrt) refers to dsqrt_umaal.o(x$fpl$dsqrt) for _dsqrt
    sqrt.o(i.__hardfp_sqrt) refers to _rserrno.o(.text) for __set_errno
    sqrt.o(i.__softfp_sqrt) refers (Special) to usenofp.o(x$fpl$usenofp) for __I$use$fp
    sqrt.o(i.__softfp_sqrt) refers to dsqrt_umaal.o(x$fpl$dsqrt) for _dsqrt
    sqrt.o(i.__softfp_sqrt) refers to _rserrno.o(.text) for __set_errno
    sqrt.o(i.sqrt) refers (Special) to usenofp.o(x$fpl$usenofp) for __I$use$fp
    sqrt.o(i.sqrt) refers to dsqrt_umaal.o(x$fpl$dsqrt) for _dsqrt
    sqrt.o(i.sqrt) refers to _rserrno.o(.text) for __set_errno
    sqrt_x.o(i.____hardfp_sqrt$lsc) refers (Special) to usenofp.o(x$fpl$usenofp) for __I$use$fp
    sqrt_x.o(i.____hardfp_sqrt$lsc) refers to dleqf.o(x$fpl$dleqf) for __aeabi_cdcmple
    sqrt_x.o(i.____hardfp_sqrt$lsc) refers to _rserrno.o(.text) for __set_errno
    sqrt_x.o(i.____hardfp_sqrt$lsc) refers to dsqrt_umaal.o(x$fpl$dsqrt) for _dsqrt
    sqrt_x.o(i.____softfp_sqrt$lsc) refers (Special) to usenofp.o(x$fpl$usenofp) for __I$use$fp
    sqrt_x.o(i.____softfp_sqrt$lsc) refers to dleqf.o(x$fpl$dleqf) for __aeabi_cdcmple
    sqrt_x.o(i.____softfp_sqrt$lsc) refers to _rserrno.o(.text) for __set_errno
    sqrt_x.o(i.____softfp_sqrt$lsc) refers to dsqrt_umaal.o(x$fpl$dsqrt) for _dsqrt
    sqrt_x.o(i.__sqrt$lsc) refers (Special) to usenofp.o(x$fpl$usenofp) for __I$use$fp
    sqrt_x.o(i.__sqrt$lsc) refers to dleqf.o(x$fpl$dleqf) for __aeabi_cdcmple
    sqrt_x.o(i.__sqrt$lsc) refers to _rserrno.o(.text) for __set_errno
    sqrt_x.o(i.__sqrt$lsc) refers to dsqrt_umaal.o(x$fpl$dsqrt) for _dsqrt
    sqrtf.o(i.__hardfp_sqrtf) refers (Special) to usenofp.o(x$fpl$usenofp) for __I$use$fp
    sqrtf.o(i.__hardfp_sqrtf) refers to _rserrno.o(.text) for __set_errno
    sqrtf.o(i.__softfp_sqrtf) refers (Special) to usenofp.o(x$fpl$usenofp) for __I$use$fp
    sqrtf.o(i.__softfp_sqrtf) refers to _rserrno.o(.text) for __set_errno
    sqrtf.o(i.sqrtf) refers (Special) to usenofp.o(x$fpl$usenofp) for __I$use$fp
    sqrtf.o(i.sqrtf) refers to _rserrno.o(.text) for __set_errno
    sqrtf_x.o(i.____hardfp_sqrtf$lsc) refers (Special) to usenofp.o(x$fpl$usenofp) for __I$use$fp
    sqrtf_x.o(i.____hardfp_sqrtf$lsc) refers to _rserrno.o(.text) for __set_errno
    sqrtf_x.o(i.____softfp_sqrtf$lsc) refers (Special) to usenofp.o(x$fpl$usenofp) for __I$use$fp
    sqrtf_x.o(i.____softfp_sqrtf$lsc) refers to _rserrno.o(.text) for __set_errno
    sqrtf_x.o(i.__sqrtf$lsc) refers (Special) to usenofp.o(x$fpl$usenofp) for __I$use$fp
    sqrtf_x.o(i.__sqrtf$lsc) refers to _rserrno.o(.text) for __set_errno
    __rtentry.o(.ARM.Collect$$rtentry$$00000000) refers (Special) to __rtentry2.o(.ARM.Collect$$rtentry$$0000000A) for __rt_entry_li
    __rtentry.o(.ARM.Collect$$rtentry$$00000000) refers (Special) to __rtentry2.o(.ARM.Collect$$rtentry$$0000000D) for __rt_entry_main
    __rtentry.o(.ARM.Collect$$rtentry$$00000000) refers (Special) to __rtentry2.o(.ARM.Collect$$rtentry$$0000000C) for __rt_entry_postli_1
    __rtentry.o(.ARM.Collect$$rtentry$$00000000) refers (Special) to __rtentry2.o(.ARM.Collect$$rtentry$$00000009) for __rt_entry_postsh_1
    __rtentry.o(.ARM.Collect$$rtentry$$00000000) refers (Special) to __rtentry2.o(.ARM.Collect$$rtentry$$00000002) for __rt_entry_presh_1
    __rtentry.o(.ARM.Collect$$rtentry$$00000000) refers (Special) to __rtentry4.o(.ARM.Collect$$rtentry$$00000004) for __rt_entry_sh
    _rserrno.o(.text) refers to rt_errno_addr_intlibspace.o(.text) for __aeabi_errno_addr
    dcmpi.o(x$fpl$dcmpinf) refers (Special) to usenofp.o(x$fpl$usenofp) for __I$use$fp
    dnaninf.o(x$fpl$dnaninf) refers (Special) to usenofp.o(x$fpl$usenofp) for __I$use$fp
    dretinf.o(x$fpl$dretinf) refers (Special) to usenofp.o(x$fpl$usenofp) for __I$use$fp
    dsqrt_umaal.o(x$fpl$dsqrt) refers (Special) to usenofp.o(x$fpl$usenofp) for __I$use$fp
    dsqrt_umaal.o(x$fpl$dsqrt) refers to dnaninf.o(x$fpl$dnaninf) for __fpl_dnaninf
    fnaninf.o(x$fpl$fnaninf) refers (Special) to usenofp.o(x$fpl$usenofp) for __I$use$fp
    fretinf.o(x$fpl$fretinf) refers (Special) to usenofp.o(x$fpl$usenofp) for __I$use$fp
    scalbn.o(x$fpl$scalbn) refers (Special) to usenofp.o(x$fpl$usenofp) for __I$use$fp
    scalbn.o(x$fpl$scalbn) refers to dcheck1.o(x$fpl$dcheck1) for __fpl_dcheck_NaN1
    cos_i.o(i.__kernel_cos) refers (Special) to usenofp.o(x$fpl$usenofp) for __I$use$fp
    cos_i.o(i.__kernel_cos) refers to dfix.o(x$fpl$dfix) for __aeabi_d2iz
    cos_i.o(i.__kernel_cos) refers to dmul.o(x$fpl$dmul) for __aeabi_dmul
    cos_i.o(i.__kernel_cos) refers to poly.o(i.__kernel_poly) for __kernel_poly
    cos_i.o(i.__kernel_cos) refers to daddsub_clz.o(x$fpl$dsub) for __aeabi_dsub
    cos_i.o(i.__kernel_cos) refers to daddsub_clz.o(x$fpl$drsb) for __aeabi_drsub
    cos_i.o(i.__kernel_cos) refers to cos_i.o(.constdata) for .constdata
    cos_i.o(.constdata) refers (Special) to usenofp.o(x$fpl$usenofp) for __I$use$fp
    dunder.o(i.__mathlib_dbl_divzero) refers to ddiv.o(x$fpl$ddiv) for __aeabi_ddiv
    dunder.o(i.__mathlib_dbl_infnan) refers to daddsub_clz.o(x$fpl$dadd) for __aeabi_dadd
    dunder.o(i.__mathlib_dbl_infnan2) refers to daddsub_clz.o(x$fpl$dadd) for __aeabi_dadd
    dunder.o(i.__mathlib_dbl_invalid) refers to ddiv.o(x$fpl$ddiv) for __aeabi_ddiv
    dunder.o(i.__mathlib_dbl_overflow) refers to dmul.o(x$fpl$dmul) for __aeabi_dmul
    dunder.o(i.__mathlib_dbl_posinfnan) refers to dmul.o(x$fpl$dmul) for __aeabi_dmul
    dunder.o(i.__mathlib_dbl_underflow) refers to dmul.o(x$fpl$dmul) for __aeabi_dmul
    fpclassify.o(i.__ARM_fpclassify) refers (Special) to usenofp.o(x$fpl$usenofp) for __I$use$fp
    fpclassifyf.o(i.__ARM_fpclassifyf) refers (Special) to usenofp.o(x$fpl$usenofp) for __I$use$fp
    poly.o(i.__kernel_poly) refers (Special) to usenofp.o(x$fpl$usenofp) for __I$use$fp
    poly.o(i.__kernel_poly) refers to dmul.o(x$fpl$dmul) for __aeabi_dmul
    poly.o(i.__kernel_poly) refers to daddsub_clz.o(x$fpl$dadd) for __aeabi_dadd
    qnan.o(.constdata) refers (Special) to usenofp.o(x$fpl$usenofp) for __I$use$fp
    rred.o(i.__ieee754_rem_pio2) refers (Special) to usenofp.o(x$fpl$usenofp) for __I$use$fp
    rred.o(i.__ieee754_rem_pio2) refers to daddsub_clz.o(x$fpl$dsub) for __aeabi_dsub
    rred.o(i.__ieee754_rem_pio2) refers to daddsub_clz.o(x$fpl$dadd) for __aeabi_dadd
    rred.o(i.__ieee754_rem_pio2) refers to fabs.o(i.fabs) for fabs
    rred.o(i.__ieee754_rem_pio2) refers to dmul.o(x$fpl$dmul) for __aeabi_dmul
    rred.o(i.__ieee754_rem_pio2) refers to dfix.o(x$fpl$dfix) for __aeabi_d2iz
    rred.o(i.__ieee754_rem_pio2) refers to dflt_clz.o(x$fpl$dflt) for __aeabi_i2d
    rred.o(i.__ieee754_rem_pio2) refers to daddsub_clz.o(x$fpl$drsb) for __aeabi_drsub
    rred.o(i.__ieee754_rem_pio2) refers to basic.o(x$fpl$basic) for __aeabi_dneg
    rred.o(i.__ieee754_rem_pio2) refers to dflt_clz.o(x$fpl$dfltu) for __aeabi_ui2d
    rred.o(i.__ieee754_rem_pio2) refers to rred.o(.constdata) for .constdata
    rred.o(i.__use_accurate_range_reduction) refers (Special) to usenofp.o(x$fpl$usenofp) for __I$use$fp
    rred.o(.constdata) refers (Special) to usenofp.o(x$fpl$usenofp) for __I$use$fp
    rredf.o(i.__mathlib_rredf2) refers (Special) to usenofp.o(x$fpl$usenofp) for __I$use$fp
    rredf.o(i.__mathlib_rredf2) refers to rredf.o(.constdata) for .constdata
    rredf.o(.constdata) refers (Special) to usenofp.o(x$fpl$usenofp) for __I$use$fp
    sin_i.o(i.__kernel_sin) refers (Special) to usenofp.o(x$fpl$usenofp) for __I$use$fp
    sin_i.o(i.__kernel_sin) refers to fpclassify.o(i.__ARM_fpclassify) for __ARM_fpclassify
    sin_i.o(i.__kernel_sin) refers to dunder.o(i.__mathlib_dbl_underflow) for __mathlib_dbl_underflow
    sin_i.o(i.__kernel_sin) refers to dmul.o(x$fpl$dmul) for __aeabi_dmul
    sin_i.o(i.__kernel_sin) refers to poly.o(i.__kernel_poly) for __kernel_poly
    sin_i.o(i.__kernel_sin) refers to daddsub_clz.o(x$fpl$dsub) for __aeabi_dsub
    sin_i.o(i.__kernel_sin) refers to daddsub_clz.o(x$fpl$drsb) for __aeabi_drsub
    sin_i.o(i.__kernel_sin) refers to daddsub_clz.o(x$fpl$dadd) for __aeabi_dadd
    sin_i.o(i.__kernel_sin) refers to sin_i.o(.constdata) for .constdata
    sin_i.o(.constdata) refers (Special) to usenofp.o(x$fpl$usenofp) for __I$use$fp
    sin_i_x.o(i.____kernel_sin$lsc) refers (Special) to usenofp.o(x$fpl$usenofp) for __I$use$fp
    sin_i_x.o(i.____kernel_sin$lsc) refers to dmul.o(x$fpl$dmul) for __aeabi_dmul
    sin_i_x.o(i.____kernel_sin$lsc) refers to poly.o(i.__kernel_poly) for __kernel_poly
    sin_i_x.o(i.____kernel_sin$lsc) refers to daddsub_clz.o(x$fpl$dsub) for __aeabi_dsub
    sin_i_x.o(i.____kernel_sin$lsc) refers to daddsub_clz.o(x$fpl$drsb) for __aeabi_drsub
    sin_i_x.o(i.____kernel_sin$lsc) refers to daddsub_clz.o(x$fpl$dadd) for __aeabi_dadd
    sin_i_x.o(i.____kernel_sin$lsc) refers to sin_i_x.o(.constdata) for .constdata
    sin_i_x.o(.constdata) refers (Special) to usenofp.o(x$fpl$usenofp) for __I$use$fp
    __rtentry2.o(.ARM.Collect$$rtentry$$00000008) refers to boardinit2.o(.text) for _platform_post_stackheap_init
    __rtentry2.o(.ARM.Collect$$rtentry$$0000000A) refers to libinit.o(.ARM.Collect$$libinit$$00000000) for __rt_lib_init
    __rtentry2.o(.ARM.Collect$$rtentry$$0000000B) refers to boardinit3.o(.text) for _platform_post_lib_init
    __rtentry2.o(.ARM.Collect$$rtentry$$0000000D) refers to main.o(.text) for main
    __rtentry2.o(.ARM.Collect$$rtentry$$0000000D) refers to exit.o(.text) for exit
    __rtentry2.o(.ARM.exidx) refers to __rtentry2.o(.ARM.Collect$$rtentry$$00000001) for .ARM.Collect$$rtentry$$00000001
    __rtentry2.o(.ARM.exidx) refers to __rtentry2.o(.ARM.Collect$$rtentry$$00000008) for .ARM.Collect$$rtentry$$00000008
    __rtentry2.o(.ARM.exidx) refers to __rtentry2.o(.ARM.Collect$$rtentry$$0000000A) for .ARM.Collect$$rtentry$$0000000A
    __rtentry2.o(.ARM.exidx) refers to __rtentry2.o(.ARM.Collect$$rtentry$$0000000B) for .ARM.Collect$$rtentry$$0000000B
    __rtentry2.o(.ARM.exidx) refers to __rtentry2.o(.ARM.Collect$$rtentry$$0000000D) for .ARM.Collect$$rtentry$$0000000D
    __rtentry4.o(.ARM.Collect$$rtentry$$00000004) refers to sys_stackheap_outer.o(.text) for __user_setup_stackheap
    __rtentry4.o(.ARM.exidx) refers to __rtentry4.o(.ARM.Collect$$rtentry$$00000004) for .ARM.Collect$$rtentry$$00000004
    aeabi_ldiv0_sigfpe.o(.text) refers to rt_div0.o(.text) for __rt_div0
    rt_errno_addr.o(.text) refers to rt_errno_addr.o(.bss) for __aeabi_errno_addr_data
    rt_errno_addr_intlibspace.o(.text) refers to libspace.o(.bss) for __libspace_start
    dcheck1.o(x$fpl$dcheck1) refers (Special) to usenofp.o(x$fpl$usenofp) for __I$use$fp
    dcheck1.o(x$fpl$dcheck1) refers to retnan.o(x$fpl$retnan) for __fpl_return_NaN
    libspace.o(.text) refers to libspace.o(.bss) for __libspace_start
    sys_stackheap_outer.o(.text) refers to libspace.o(.text) for __user_perproc_libspace
    sys_stackheap_outer.o(.text) refers to startup_stm32f4xx.o(.text) for __user_initial_stackheap
    rt_div0.o(.text) refers to defsig_fpe_outer.o(.text) for __rt_SIGFPE
    exit.o(.text) refers to rtexit.o(.ARM.Collect$$rtexit$$00000000) for __rt_exit
    libinit.o(.ARM.Collect$$libinit$$00000000) refers (Special) to libinit2.o(.ARM.Collect$$libinit$$0000002E) for __rt_lib_init_alloca_1
    libinit.o(.ARM.Collect$$libinit$$00000000) refers (Special) to libinit2.o(.ARM.Collect$$libinit$$0000002C) for __rt_lib_init_argv_1
    libinit.o(.ARM.Collect$$libinit$$00000000) refers (Special) to libinit2.o(.ARM.Collect$$libinit$$0000001B) for __rt_lib_init_atexit_1
    libinit.o(.ARM.Collect$$libinit$$00000000) refers (Special) to libinit2.o(.ARM.Collect$$libinit$$00000021) for __rt_lib_init_clock_1
    libinit.o(.ARM.Collect$$libinit$$00000000) refers (Special) to libinit2.o(.ARM.Collect$$libinit$$00000032) for __rt_lib_init_cpp_1
    libinit.o(.ARM.Collect$$libinit$$00000000) refers (Special) to libinit2.o(.ARM.Collect$$libinit$$00000030) for __rt_lib_init_exceptions_1
    libinit.o(.ARM.Collect$$libinit$$00000000) refers (Special) to libinit2.o(.ARM.Collect$$libinit$$00000001) for __rt_lib_init_fp_1
    libinit.o(.ARM.Collect$$libinit$$00000000) refers (Special) to libinit2.o(.ARM.Collect$$libinit$$0000001F) for __rt_lib_init_fp_trap_1
    libinit.o(.ARM.Collect$$libinit$$00000000) refers (Special) to libinit2.o(.ARM.Collect$$libinit$$00000023) for __rt_lib_init_getenv_1
    libinit.o(.ARM.Collect$$libinit$$00000000) refers (Special) to libinit2.o(.ARM.Collect$$libinit$$0000000A) for __rt_lib_init_heap_1
    libinit.o(.ARM.Collect$$libinit$$00000000) refers (Special) to libinit2.o(.ARM.Collect$$libinit$$00000011) for __rt_lib_init_lc_collate_1
    libinit.o(.ARM.Collect$$libinit$$00000000) refers (Special) to libinit2.o(.ARM.Collect$$libinit$$00000013) for __rt_lib_init_lc_ctype_1
    libinit.o(.ARM.Collect$$libinit$$00000000) refers (Special) to libinit2.o(.ARM.Collect$$libinit$$00000015) for __rt_lib_init_lc_monetary_1
    libinit.o(.ARM.Collect$$libinit$$00000000) refers (Special) to libinit2.o(.ARM.Collect$$libinit$$00000017) for __rt_lib_init_lc_numeric_1
    libinit.o(.ARM.Collect$$libinit$$00000000) refers (Special) to libinit2.o(.ARM.Collect$$libinit$$00000019) for __rt_lib_init_lc_time_1
    libinit.o(.ARM.Collect$$libinit$$00000000) refers (Special) to libinit2.o(.ARM.Collect$$libinit$$00000004) for __rt_lib_init_preinit_1
    libinit.o(.ARM.Collect$$libinit$$00000000) refers (Special) to libinit2.o(.ARM.Collect$$libinit$$0000000E) for __rt_lib_init_rand_1
    libinit.o(.ARM.Collect$$libinit$$00000000) refers (Special) to libinit2.o(.ARM.Collect$$libinit$$00000033) for __rt_lib_init_return
    libinit.o(.ARM.Collect$$libinit$$00000000) refers (Special) to libinit2.o(.ARM.Collect$$libinit$$0000001D) for __rt_lib_init_signal_1
    libinit.o(.ARM.Collect$$libinit$$00000000) refers (Special) to libinit2.o(.ARM.Collect$$libinit$$00000025) for __rt_lib_init_stdio_1
    libinit.o(.ARM.Collect$$libinit$$00000000) refers (Special) to libinit2.o(.ARM.Collect$$libinit$$0000000C) for __rt_lib_init_user_alloc_1
    retnan.o(x$fpl$retnan) refers (Special) to usenofp.o(x$fpl$usenofp) for __I$use$fp
    retnan.o(x$fpl$retnan) refers to trapv.o(x$fpl$trapveneer) for __fpl_cmpreturn
    rtexit.o(.ARM.Collect$$rtexit$$00000000) refers (Special) to rtexit2.o(.ARM.Collect$$rtexit$$00000004) for __rt_exit_exit
    rtexit.o(.ARM.Collect$$rtexit$$00000000) refers (Special) to rtexit2.o(.ARM.Collect$$rtexit$$00000003) for __rt_exit_ls
    rtexit.o(.ARM.Collect$$rtexit$$00000000) refers (Special) to rtexit2.o(.ARM.Collect$$rtexit$$00000002) for __rt_exit_prels_1
    rtexit.o(.ARM.exidx) refers (Special) to rtexit2.o(.ARM.Collect$$rtexit$$00000004) for __rt_exit_exit
    rtexit.o(.ARM.exidx) refers (Special) to rtexit2.o(.ARM.Collect$$rtexit$$00000003) for __rt_exit_ls
    rtexit.o(.ARM.exidx) refers (Special) to rtexit2.o(.ARM.Collect$$rtexit$$00000002) for __rt_exit_prels_1
    rtexit.o(.ARM.exidx) refers to rtexit.o(.ARM.Collect$$rtexit$$00000000) for .ARM.Collect$$rtexit$$00000000
    defsig_fpe_outer.o(.text) refers to defsig_fpe_inner.o(.text) for __rt_SIGFPE_inner
    defsig_fpe_outer.o(.text) refers to defsig_exit.o(.text) for __sig_exit
    defsig_fpe_formal.o(.text) refers to rt_raise.o(.text) for __rt_raise
    libinit2.o(.ARM.Collect$$libinit$$00000001) refers to fpinit.o(x$fpl$fpinit) for _fp_init
    libinit2.o(.ARM.Collect$$libinit$$00000010) refers to libinit2.o(.ARM.Collect$$libinit$$0000000F) for .ARM.Collect$$libinit$$0000000F
    libinit2.o(.ARM.Collect$$libinit$$00000012) refers to libinit2.o(.ARM.Collect$$libinit$$0000000F) for .ARM.Collect$$libinit$$0000000F
    libinit2.o(.ARM.Collect$$libinit$$00000014) refers to libinit2.o(.ARM.Collect$$libinit$$0000000F) for .ARM.Collect$$libinit$$0000000F
    libinit2.o(.ARM.Collect$$libinit$$00000016) refers to libinit2.o(.ARM.Collect$$libinit$$0000000F) for .ARM.Collect$$libinit$$0000000F
    libinit2.o(.ARM.Collect$$libinit$$00000018) refers to libinit2.o(.ARM.Collect$$libinit$$0000000F) for .ARM.Collect$$libinit$$0000000F
    libinit2.o(.ARM.Collect$$libinit$$00000026) refers to argv_veneer.o(.emb_text) for __ARM_argv_veneer
    libinit2.o(.ARM.Collect$$libinit$$00000027) refers to argv_veneer.o(.emb_text) for __ARM_argv_veneer
    trapv.o(x$fpl$trapveneer) refers (Special) to usenofp.o(x$fpl$usenofp) for __I$use$fp
    rtexit2.o(.ARM.Collect$$rtexit$$00000003) refers to libshutdown.o(.ARM.Collect$$libshutdown$$00000000) for __rt_lib_shutdown
    rtexit2.o(.ARM.Collect$$rtexit$$00000004) refers to sys_exit.o(.text) for _sys_exit
    rtexit2.o(.ARM.exidx) refers to rtexit2.o(.ARM.Collect$$rtexit$$00000001) for .ARM.Collect$$rtexit$$00000001
    rtexit2.o(.ARM.exidx) refers to rtexit2.o(.ARM.Collect$$rtexit$$00000003) for .ARM.Collect$$rtexit$$00000003
    rtexit2.o(.ARM.exidx) refers to rtexit2.o(.ARM.Collect$$rtexit$$00000004) for .ARM.Collect$$rtexit$$00000004
    rt_raise.o(.text) refers to __raise.o(.text) for __raise
    rt_raise.o(.text) refers to sys_exit.o(.text) for _sys_exit
    defsig_exit.o(.text) refers to sys_exit.o(.text) for _sys_exit
    defsig_fpe_inner.o(.text) refers to defsig_general.o(.text) for __default_signal_display
    argv_veneer.o(.emb_text) refers to no_argv.o(.text) for __ARM_get_argv
    sys_exit.o(.text) refers (Special) to use_no_semi.o(.text) for __I$use$semihosting
    sys_exit.o(.text) refers (Special) to indicate_semi.o(.text) for __semihosting_library_function
    __raise.o(.text) refers to defsig.o(CL$$defsig) for __default_signal_handler
    defsig_general.o(.text) refers to sys_wrch.o(.text) for _ttywrch
    _get_argv_nomalloc.o(.text) refers (Special) to hrguard.o(.text) for __heap_region$guard
    _get_argv_nomalloc.o(.text) refers to defsig_rtmem_outer.o(.text) for __rt_SIGRTMEM
    _get_argv_nomalloc.o(.text) refers to sys_command.o(.text) for _sys_command_string
    libshutdown.o(.ARM.Collect$$libshutdown$$00000000) refers (Special) to libshutdown2.o(.ARM.Collect$$libshutdown$$00000002) for __rt_lib_shutdown_cpp_1
    libshutdown.o(.ARM.Collect$$libshutdown$$00000000) refers (Special) to libshutdown2.o(.ARM.Collect$$libshutdown$$00000007) for __rt_lib_shutdown_fp_trap_1
    libshutdown.o(.ARM.Collect$$libshutdown$$00000000) refers (Special) to libshutdown2.o(.ARM.Collect$$libshutdown$$0000000F) for __rt_lib_shutdown_heap_1
    libshutdown.o(.ARM.Collect$$libshutdown$$00000000) refers (Special) to libshutdown2.o(.ARM.Collect$$libshutdown$$00000010) for __rt_lib_shutdown_return
    libshutdown.o(.ARM.Collect$$libshutdown$$00000000) refers (Special) to libshutdown2.o(.ARM.Collect$$libshutdown$$0000000A) for __rt_lib_shutdown_signal_1
    libshutdown.o(.ARM.Collect$$libshutdown$$00000000) refers (Special) to libshutdown2.o(.ARM.Collect$$libshutdown$$00000004) for __rt_lib_shutdown_stdio_1
    libshutdown.o(.ARM.Collect$$libshutdown$$00000000) refers (Special) to libshutdown2.o(.ARM.Collect$$libshutdown$$0000000C) for __rt_lib_shutdown_user_alloc_1
    sys_wrch.o(.text) refers (Special) to use_no_semi.o(.text) for __I$use$semihosting
    sys_wrch.o(.text) refers (Special) to indicate_semi.o(.text) for __semihosting_library_function
    sys_command.o(.text) refers (Special) to use_no_semi.o(.text) for __I$use$semihosting
    sys_command.o(.text) refers (Special) to indicate_semi.o(.text) for __semihosting_library_function
    defsig_rtmem_outer.o(.text) refers to defsig_rtmem_inner.o(.text) for __rt_SIGRTMEM_inner
    defsig_rtmem_outer.o(.text) refers to defsig_exit.o(.text) for __sig_exit
    defsig_rtmem_formal.o(.text) refers to rt_raise.o(.text) for __rt_raise
    defsig.o(CL$$defsig) refers to defsig_fpe_inner.o(.text) for __rt_SIGFPE_inner
    defsig.o(CL$$defsig) refers to defsig_rtmem_inner.o(.text) for __rt_SIGRTMEM_inner
    defsig_abrt_inner.o(.text) refers to defsig_general.o(.text) for __default_signal_display
    defsig_rtred_inner.o(.text) refers to defsig_general.o(.text) for __default_signal_display
    defsig_rtmem_inner.o(.text) refers to defsig_general.o(.text) for __default_signal_display
    defsig_stak_inner.o(.text) refers to defsig_general.o(.text) for __default_signal_display
    defsig_pvfn_inner.o(.text) refers to defsig_general.o(.text) for __default_signal_display
    defsig_cppl_inner.o(.text) refers to defsig_general.o(.text) for __default_signal_display
    defsig_segv_inner.o(.text) refers to defsig_general.o(.text) for __default_signal_display
    defsig_other.o(.text) refers to defsig_general.o(.text) for __default_signal_display


==============================================================================

Removing Unused input sections from the image.

    Removing scheduler.o(.emb_text), (8 bytes).
    Removing init.o(.emb_text), (8 bytes).
    Removing parameter.o(.emb_text), (8 bytes).
    Removing fly_mode.o(.emb_text), (8 bytes).
    Removing main.o(.emb_text), (8 bytes).
    Removing stm32f4xx_it.o(.emb_text), (8 bytes).
    Removing pwm_out.o(.emb_text), (8 bytes).
    Removing iic_hml.o(.emb_text), (8 bytes).
    Removing i2c_soft.o(.emb_text), (8 bytes).
    Removing led.o(.emb_text), (8 bytes).
    Removing flash.o(.emb_text), (8 bytes).
    Removing time.o(.emb_text), (8 bytes).
    Removing spi.o(.emb_text), (8 bytes).
    Removing misc.o(.emb_text), (8 bytes).
    Removing stm32f4xx_adc.o(.emb_text), (8 bytes).
    Removing stm32f4xx_adc.o(.text), (1124 bytes).
    Removing stm32f4xx_dbgmcu.o(.emb_text), (8 bytes).
    Removing stm32f4xx_dbgmcu.o(.text), (100 bytes).
    Removing stm32f4xx_dma.o(.emb_text), (8 bytes).
    Removing stm32f4xx_exti.o(.emb_text), (8 bytes).
    Removing stm32f4xx_exti.o(.text), (284 bytes).
    Removing stm32f4xx_flash.o(.emb_text), (8 bytes).
    Removing stm32f4xx_gpio.o(.emb_text), (8 bytes).
    Removing stm32f4xx_i2c.o(.emb_text), (8 bytes).
    Removing stm32f4xx_i2c.o(.text), (1064 bytes).
    Removing stm32f4xx_pwr.o(.emb_text), (8 bytes).
    Removing stm32f4xx_pwr.o(.text), (248 bytes).
    Removing stm32f4xx_rcc.o(.emb_text), (8 bytes).
    Removing stm32f4xx_spi.o(.emb_text), (8 bytes).
    Removing stm32f4xx_syscfg.o(.emb_text), (8 bytes).
    Removing stm32f4xx_syscfg.o(.text), (140 bytes).
    Removing stm32f4xx_tim.o(.emb_text), (8 bytes).
    Removing stm32f4xx_usart.o(.emb_text), (8 bytes).
    Removing system_stm32f4xx.o(.emb_text), (8 bytes).
    Removing imu.o(.emb_text), (8 bytes).
    Removing alt_fushion.o(.emb_text), (8 bytes).
    Removing mymath.o(.emb_text), (8 bytes).
    Removing filter.o(.emb_text), (8 bytes).
    Removing quar.o(.emb_text), (8 bytes).
    Removing quar.o(.data), (4 bytes).
    Removing ctrl.o(.emb_text), (8 bytes).
    Removing height_ctrl.o(.emb_text), (8 bytes).
    Removing pos_ctrl.o(.emb_text), (8 bytes).
    Removing usart.o(.emb_text), (8 bytes).
    Removing data_transfer.o(.emb_text), (8 bytes).
    Removing rc.o(.emb_text), (8 bytes).
    Removing dma.o(.emb_text), (8 bytes).
    Removing mpu6050.o(.emb_text), (8 bytes).
    Removing ak8975.o(.emb_text), (8 bytes).
    Removing bmp.o(.emb_text), (8 bytes).
    Removing ultrasonic.o(.emb_text), (8 bytes).
    Removing anotc_baro_ctrl.o(.emb_text), (8 bytes).
    Removing eso.o(.emb_text), (8 bytes).

53 unused section(s) (total 3332 bytes) removed from the image.

==============================================================================

Image Symbol Table

    Local Symbols

    Symbol Name                              Value     Ov Type        Size  Object(Section)

    ../clib/angel/boardlib.s                 0x00000000   Number         0  boardinit1.o ABSOLUTE
    ../clib/angel/boardlib.s                 0x00000000   Number         0  boardinit3.o ABSOLUTE
    ../clib/angel/boardlib.s                 0x00000000   Number         0  boardinit2.o ABSOLUTE
    ../clib/angel/boardlib.s                 0x00000000   Number         0  boardshut.o ABSOLUTE
    ../clib/angel/dczerorl2.s                0x00000000   Number         0  __dczerorl2.o ABSOLUTE
    ../clib/angel/handlers.s                 0x00000000   Number         0  __scatter_zi.o ABSOLUTE
    ../clib/angel/kernel.s                   0x00000000   Number         0  rtexit2.o ABSOLUTE
    ../clib/angel/kernel.s                   0x00000000   Number         0  __rtentry.o ABSOLUTE
    ../clib/angel/kernel.s                   0x00000000   Number         0  rtexit.o ABSOLUTE
    ../clib/angel/kernel.s                   0x00000000   Number         0  __rtentry2.o ABSOLUTE
    ../clib/angel/kernel.s                   0x00000000   Number         0  __rtentry4.o ABSOLUTE
    ../clib/angel/rt.s                       0x00000000   Number         0  rt_errno_addr.o ABSOLUTE
    ../clib/angel/rt.s                       0x00000000   Number         0  rt_errno_addr_intlibspace.o ABSOLUTE
    ../clib/angel/rt.s                       0x00000000   Number         0  aeabi_ldiv0_sigfpe.o ABSOLUTE
    ../clib/angel/rt.s                       0x00000000   Number         0  rt_div0.o ABSOLUTE
    ../clib/angel/rt.s                       0x00000000   Number         0  aeabi_ldiv0.o ABSOLUTE
    ../clib/angel/rt.s                       0x00000000   Number         0  rt_raise.o ABSOLUTE
    ../clib/angel/scatter.s                  0x00000000   Number         0  __scatter.o ABSOLUTE
    ../clib/angel/startup.s                  0x00000000   Number         0  __main.o ABSOLUTE
    ../clib/angel/sys.s                      0x00000000   Number         0  sys_stackheap_outer.o ABSOLUTE
    ../clib/angel/sys.s                      0x00000000   Number         0  indicate_semi.o ABSOLUTE
    ../clib/angel/sys.s                      0x00000000   Number         0  use_no_semi.o ABSOLUTE
    ../clib/angel/sys.s                      0x00000000   Number         0  libspace.o ABSOLUTE
    ../clib/angel/sysapp.c                   0x00000000   Number         0  sys_exit.o ABSOLUTE
    ../clib/angel/sysapp.c                   0x00000000   Number         0  sys_command.o ABSOLUTE
    ../clib/angel/sysapp.c                   0x00000000   Number         0  sys_wrch.o ABSOLUTE
    ../clib/armsys.c                         0x00000000   Number         0  argv_veneer.o ABSOLUTE
    ../clib/armsys.c                         0x00000000   Number         0  _get_argv_nomalloc.o ABSOLUTE
    ../clib/armsys.c                         0x00000000   Number         0  argv_veneer.o ABSOLUTE
    ../clib/armsys.c                         0x00000000   Number         0  no_argv.o ABSOLUTE
    ../clib/fenv.c                           0x00000000   Number         0  _rserrno.o ABSOLUTE
    ../clib/heapalloc.c                      0x00000000   Number         0  hrguard.o ABSOLUTE
    ../clib/heapaux.c                        0x00000000   Number         0  heapauxi.o ABSOLUTE
    ../clib/libinit.s                        0x00000000   Number         0  libshutdown2.o ABSOLUTE
    ../clib/libinit.s                        0x00000000   Number         0  libshutdown.o ABSOLUTE
    ../clib/libinit.s                        0x00000000   Number         0  libinit2.o ABSOLUTE
    ../clib/libinit.s                        0x00000000   Number         0  libinit.o ABSOLUTE
    ../clib/longlong.s                       0x00000000   Number         0  llsdiv.o ABSOLUTE
    ../clib/longlong.s                       0x00000000   Number         0  lludivv7m.o ABSOLUTE
    ../clib/memcpset.s                       0x00000000   Number         0  rt_memcpy_w.o ABSOLUTE
    ../clib/memcpset.s                       0x00000000   Number         0  rt_memclr_w.o ABSOLUTE
    ../clib/signal.c                         0x00000000   Number         0  defsig_stak_inner.o ABSOLUTE
    ../clib/signal.c                         0x00000000   Number         0  defsig_fpe_formal.o ABSOLUTE
    ../clib/signal.c                         0x00000000   Number         0  defsig_exit.o ABSOLUTE
    ../clib/signal.c                         0x00000000   Number         0  defsig_fpe_inner.o ABSOLUTE
    ../clib/signal.c                         0x00000000   Number         0  defsig_rtmem_inner.o ABSOLUTE
    ../clib/signal.c                         0x00000000   Number         0  defsig_fpe_outer.o ABSOLUTE
    ../clib/signal.c                         0x00000000   Number         0  __raise.o ABSOLUTE
    ../clib/signal.c                         0x00000000   Number         0  defsig_general.o ABSOLUTE
    ../clib/signal.c                         0x00000000   Number         0  defsig_rtmem_formal.o ABSOLUTE
    ../clib/signal.c                         0x00000000   Number         0  defsig_rtmem_outer.o ABSOLUTE
    ../clib/signal.c                         0x00000000   Number         0  defsig_abrt_inner.o ABSOLUTE
    ../clib/signal.c                         0x00000000   Number         0  defsig_rtred_inner.o ABSOLUTE
    ../clib/signal.c                         0x00000000   Number         0  defsig_other.o ABSOLUTE
    ../clib/signal.c                         0x00000000   Number         0  defsig_segv_inner.o ABSOLUTE
    ../clib/signal.c                         0x00000000   Number         0  defsig_cppl_inner.o ABSOLUTE
    ../clib/signal.c                         0x00000000   Number         0  defsig_pvfn_inner.o ABSOLUTE
    ../clib/signal.s                         0x00000000   Number         0  defsig.o ABSOLUTE
    ../clib/stdlib.c                         0x00000000   Number         0  exit.o ABSOLUTE
    ../fplib/basic.s                         0x00000000   Number         0  basic.o ABSOLUTE
    ../fplib/d2f.s                           0x00000000   Number         0  d2f.o ABSOLUTE
    ../fplib/daddsub.s                       0x00000000   Number         0  daddsub_clz.o ABSOLUTE
    ../fplib/dcheck1.s                       0x00000000   Number         0  dcheck1.o ABSOLUTE
    ../fplib/dcmpi.s                         0x00000000   Number         0  dcmpi.o ABSOLUTE
    ../fplib/ddiv.s                          0x00000000   Number         0  ddiv.o ABSOLUTE
    ../fplib/deqf.s                          0x00000000   Number         0  deqf.o ABSOLUTE
    ../fplib/dfix.s                          0x00000000   Number         0  dfix.o ABSOLUTE
    ../fplib/dflt.s                          0x00000000   Number         0  dflt_clz.o ABSOLUTE
    ../fplib/dleqf.s                         0x00000000   Number         0  dleqf.o ABSOLUTE
    ../fplib/dmul.s                          0x00000000   Number         0  dmul.o ABSOLUTE
    ../fplib/dnaninf.s                       0x00000000   Number         0  dnaninf.o ABSOLUTE
    ../fplib/dretinf.s                       0x00000000   Number         0  dretinf.o ABSOLUTE
    ../fplib/drleqf.s                        0x00000000   Number         0  drleqf.o ABSOLUTE
    ../fplib/dsqrt.s                         0x00000000   Number         0  dsqrt_umaal.o ABSOLUTE
    ../fplib/f2d.s                           0x00000000   Number         0  f2d.o ABSOLUTE
    ../fplib/ffltll.s                        0x00000000   Number         0  ffltll_clz.o ABSOLUTE
    ../fplib/fnaninf.s                       0x00000000   Number         0  fnaninf.o ABSOLUTE
    ../fplib/fpinit.s                        0x00000000   Number         0  fpinit.o ABSOLUTE
    ../fplib/fretinf.s                       0x00000000   Number         0  fretinf.o ABSOLUTE
    ../fplib/retnan.s                        0x00000000   Number         0  retnan.o ABSOLUTE
    ../fplib/scalbn.s                        0x00000000   Number         0  scalbn.o ABSOLUTE
    ../fplib/trapv.s                         0x00000000   Number         0  trapv.o ABSOLUTE
    ../fplib/usenofp.s                       0x00000000   Number         0  usenofp.o ABSOLUTE
    ../mathlib/asin.c                        0x00000000   Number         0  asin_x.o ABSOLUTE
    ../mathlib/asin.c                        0x00000000   Number         0  asin.o ABSOLUTE
    ../mathlib/asinf.c                       0x00000000   Number         0  asinf.o ABSOLUTE
    ../mathlib/asinf.c                       0x00000000   Number         0  asinf_x.o ABSOLUTE
    ../mathlib/atan.c                        0x00000000   Number         0  atan_x.o ABSOLUTE
    ../mathlib/atan.c                        0x00000000   Number         0  atan.o ABSOLUTE
    ../mathlib/atan2.c                       0x00000000   Number         0  atan2.o ABSOLUTE
    ../mathlib/atan2.c                       0x00000000   Number         0  atan2_x.o ABSOLUTE
    ../mathlib/atan2f.c                      0x00000000   Number         0  atan2f_x.o ABSOLUTE
    ../mathlib/atan2f.c                      0x00000000   Number         0  atan2f.o ABSOLUTE
    ../mathlib/cos.c                         0x00000000   Number         0  cos_x.o ABSOLUTE
    ../mathlib/cos.c                         0x00000000   Number         0  cos.o ABSOLUTE
    ../mathlib/cos_i.c                       0x00000000   Number         0  cos_i.o ABSOLUTE
    ../mathlib/cosf.c                        0x00000000   Number         0  cosf_x.o ABSOLUTE
    ../mathlib/cosf.c                        0x00000000   Number         0  cosf.o ABSOLUTE
    ../mathlib/dunder.c                      0x00000000   Number         0  dunder.o ABSOLUTE
    ../mathlib/fabs.c                        0x00000000   Number         0  fabs.o ABSOLUTE
    ../mathlib/floor.c                       0x00000000   Number         0  floor.o ABSOLUTE
    ../mathlib/fpclassify.c                  0x00000000   Number         0  fpclassify.o ABSOLUTE
    ../mathlib/fpclassifyf.c                 0x00000000   Number         0  fpclassifyf.o ABSOLUTE
    ../mathlib/funder.c                      0x00000000   Number         0  funder.o ABSOLUTE
    ../mathlib/poly.c                        0x00000000   Number         0  poly.o ABSOLUTE
    ../mathlib/pow.c                         0x00000000   Number         0  pow_x.o ABSOLUTE
    ../mathlib/pow.c                         0x00000000   Number         0  pow.o ABSOLUTE
    ../mathlib/qnan.c                        0x00000000   Number         0  qnan.o ABSOLUTE
    ../mathlib/rred.c                        0x00000000   Number         0  rred.o ABSOLUTE
    ../mathlib/rredf.c                       0x00000000   Number         0  rredf.o ABSOLUTE
    ../mathlib/sin.c                         0x00000000   Number         0  sin_x.o ABSOLUTE
    ../mathlib/sin.c                         0x00000000   Number         0  sin.o ABSOLUTE
    ../mathlib/sin_i.c                       0x00000000   Number         0  sin_i.o ABSOLUTE
    ../mathlib/sin_i.c                       0x00000000   Number         0  sin_i_x.o ABSOLUTE
    ../mathlib/sinf.c                        0x00000000   Number         0  sinf.o ABSOLUTE
    ../mathlib/sinf.c                        0x00000000   Number         0  sinf_x.o ABSOLUTE
    ../mathlib/sqrt.c                        0x00000000   Number         0  sqrt.o ABSOLUTE
    ../mathlib/sqrt.c                        0x00000000   Number         0  sqrt_x.o ABSOLUTE
    ../mathlib/sqrtf.c                       0x00000000   Number         0  sqrtf.o ABSOLUTE
    ../mathlib/sqrtf.c                       0x00000000   Number         0  sqrtf_x.o ABSOLUTE
    Libraries\CMSIS\ST\STM32F4xx\Source\Templates\arm\startup_stm32f4xx.s 0x00000000   Number         0  startup_stm32f4xx.o ABSOLUTE
    Libraries\CMSIS\ST\STM32F4xx\Source\Templates\system_stm32f4xx.c 0x00000000   Number         0  system_stm32f4xx.o ABSOLUTE
    Libraries\STM32F4xx_StdPeriph_Driver\src\misc.c 0x00000000   Number         0  misc.o ABSOLUTE
    Libraries\STM32F4xx_StdPeriph_Driver\src\stm32f4xx_adc.c 0x00000000   Number         0  stm32f4xx_adc.o ABSOLUTE
    Libraries\STM32F4xx_StdPeriph_Driver\src\stm32f4xx_dbgmcu.c 0x00000000   Number         0  stm32f4xx_dbgmcu.o ABSOLUTE
    Libraries\STM32F4xx_StdPeriph_Driver\src\stm32f4xx_dma.c 0x00000000   Number         0  stm32f4xx_dma.o ABSOLUTE
    Libraries\STM32F4xx_StdPeriph_Driver\src\stm32f4xx_exti.c 0x00000000   Number         0  stm32f4xx_exti.o ABSOLUTE
    Libraries\STM32F4xx_StdPeriph_Driver\src\stm32f4xx_flash.c 0x00000000   Number         0  stm32f4xx_flash.o ABSOLUTE
    Libraries\STM32F4xx_StdPeriph_Driver\src\stm32f4xx_gpio.c 0x00000000   Number         0  stm32f4xx_gpio.o ABSOLUTE
    Libraries\STM32F4xx_StdPeriph_Driver\src\stm32f4xx_i2c.c 0x00000000   Number         0  stm32f4xx_i2c.o ABSOLUTE
    Libraries\STM32F4xx_StdPeriph_Driver\src\stm32f4xx_pwr.c 0x00000000   Number         0  stm32f4xx_pwr.o ABSOLUTE
    Libraries\STM32F4xx_StdPeriph_Driver\src\stm32f4xx_rcc.c 0x00000000   Number         0  stm32f4xx_rcc.o ABSOLUTE
    Libraries\STM32F4xx_StdPeriph_Driver\src\stm32f4xx_spi.c 0x00000000   Number         0  stm32f4xx_spi.o ABSOLUTE
    Libraries\STM32F4xx_StdPeriph_Driver\src\stm32f4xx_syscfg.c 0x00000000   Number         0  stm32f4xx_syscfg.o ABSOLUTE
    Libraries\STM32F4xx_StdPeriph_Driver\src\stm32f4xx_tim.c 0x00000000   Number         0  stm32f4xx_tim.o ABSOLUTE
    Libraries\STM32F4xx_StdPeriph_Driver\src\stm32f4xx_usart.c 0x00000000   Number         0  stm32f4xx_usart.o ABSOLUTE
    Libraries\\CMSIS\\ST\\STM32F4xx\\Source\\Templates\\system_stm32f4xx.c 0x00000000   Number         0  system_stm32f4xx.o ABSOLUTE
    Libraries\\STM32F4xx_StdPeriph_Driver\\src\\misc.c 0x00000000   Number         0  misc.o ABSOLUTE
    Libraries\\STM32F4xx_StdPeriph_Driver\\src\\stm32f4xx_adc.c 0x00000000   Number         0  stm32f4xx_adc.o ABSOLUTE
    Libraries\\STM32F4xx_StdPeriph_Driver\\src\\stm32f4xx_dbgmcu.c 0x00000000   Number         0  stm32f4xx_dbgmcu.o ABSOLUTE
    Libraries\\STM32F4xx_StdPeriph_Driver\\src\\stm32f4xx_dma.c 0x00000000   Number         0  stm32f4xx_dma.o ABSOLUTE
    Libraries\\STM32F4xx_StdPeriph_Driver\\src\\stm32f4xx_exti.c 0x00000000   Number         0  stm32f4xx_exti.o ABSOLUTE
    Libraries\\STM32F4xx_StdPeriph_Driver\\src\\stm32f4xx_flash.c 0x00000000   Number         0  stm32f4xx_flash.o ABSOLUTE
    Libraries\\STM32F4xx_StdPeriph_Driver\\src\\stm32f4xx_gpio.c 0x00000000   Number         0  stm32f4xx_gpio.o ABSOLUTE
    Libraries\\STM32F4xx_StdPeriph_Driver\\src\\stm32f4xx_i2c.c 0x00000000   Number         0  stm32f4xx_i2c.o ABSOLUTE
    Libraries\\STM32F4xx_StdPeriph_Driver\\src\\stm32f4xx_pwr.c 0x00000000   Number         0  stm32f4xx_pwr.o ABSOLUTE
    Libraries\\STM32F4xx_StdPeriph_Driver\\src\\stm32f4xx_rcc.c 0x00000000   Number         0  stm32f4xx_rcc.o ABSOLUTE
    Libraries\\STM32F4xx_StdPeriph_Driver\\src\\stm32f4xx_spi.c 0x00000000   Number         0  stm32f4xx_spi.o ABSOLUTE
    Libraries\\STM32F4xx_StdPeriph_Driver\\src\\stm32f4xx_syscfg.c 0x00000000   Number         0  stm32f4xx_syscfg.o ABSOLUTE
    Libraries\\STM32F4xx_StdPeriph_Driver\\src\\stm32f4xx_tim.c 0x00000000   Number         0  stm32f4xx_tim.o ABSOLUTE
    Libraries\\STM32F4xx_StdPeriph_Driver\\src\\stm32f4xx_usart.c 0x00000000   Number         0  stm32f4xx_usart.o ABSOLUTE
    applications\FastMath.c                  0x00000000   Number         0  fastmath.o ABSOLUTE
    applications\\alt_fushion.c              0x00000000   Number         0  alt_fushion.o ABSOLUTE
    applications\\anotc_baro_ctrl.c          0x00000000   Number         0  anotc_baro_ctrl.o ABSOLUTE
    applications\\bmp.c                      0x00000000   Number         0  bmp.o ABSOLUTE
    applications\\ctrl.c                     0x00000000   Number         0  ctrl.o ABSOLUTE
    applications\\data_transfer.c            0x00000000   Number         0  data_transfer.o ABSOLUTE
    applications\\dma.c                      0x00000000   Number         0  dma.o ABSOLUTE
    applications\\eso.c                      0x00000000   Number         0  eso.o ABSOLUTE
    applications\\filter.c                   0x00000000   Number         0  filter.o ABSOLUTE
    applications\\flash.c                    0x00000000   Number         0  flash.o ABSOLUTE
    applications\\fly_mode.c                 0x00000000   Number         0  fly_mode.o ABSOLUTE
    applications\\height_ctrl.c              0x00000000   Number         0  height_ctrl.o ABSOLUTE
    applications\\iic_hml.c                  0x00000000   Number         0  iic_hml.o ABSOLUTE
    applications\\imu.c                      0x00000000   Number         0  imu.o ABSOLUTE
    applications\\init.c                     0x00000000   Number         0  init.o ABSOLUTE
    applications\\main.c                     0x00000000   Number         0  main.o ABSOLUTE
    applications\\mymath.c                   0x00000000   Number         0  mymath.o ABSOLUTE
    applications\\parameter.c                0x00000000   Number         0  parameter.o ABSOLUTE
    applications\\pos_ctrl.c                 0x00000000   Number         0  pos_ctrl.o ABSOLUTE
    applications\\quar.c                     0x00000000   Number         0  quar.o ABSOLUTE
    applications\\rc.c                       0x00000000   Number         0  rc.o ABSOLUTE
    applications\\scheduler.c                0x00000000   Number         0  scheduler.o ABSOLUTE
    applications\\spi.c                      0x00000000   Number         0  spi.o ABSOLUTE
    applications\\stm32f4xx_it.c             0x00000000   Number         0  stm32f4xx_it.o ABSOLUTE
    applications\alt_fushion.c               0x00000000   Number         0  alt_fushion.o ABSOLUTE
    applications\anotc_baro_ctrl.c           0x00000000   Number         0  anotc_baro_ctrl.o ABSOLUTE
    applications\bmp.c                       0x00000000   Number         0  bmp.o ABSOLUTE
    applications\ctrl.c                      0x00000000   Number         0  ctrl.o ABSOLUTE
    applications\data_transfer.c             0x00000000   Number         0  data_transfer.o ABSOLUTE
    applications\dma.c                       0x00000000   Number         0  dma.o ABSOLUTE
    applications\eso.c                       0x00000000   Number         0  eso.o ABSOLUTE
    applications\filter.c                    0x00000000   Number         0  filter.o ABSOLUTE
    applications\flash.c                     0x00000000   Number         0  flash.o ABSOLUTE
    applications\fly_mode.c                  0x00000000   Number         0  fly_mode.o ABSOLUTE
    applications\height_ctrl.c               0x00000000   Number         0  height_ctrl.o ABSOLUTE
    applications\iic_hml.c                   0x00000000   Number         0  iic_hml.o ABSOLUTE
    applications\imu.c                       0x00000000   Number         0  imu.o ABSOLUTE
    applications\init.c                      0x00000000   Number         0  init.o ABSOLUTE
    applications\main.c                      0x00000000   Number         0  main.o ABSOLUTE
    applications\mymath.c                    0x00000000   Number         0  mymath.o ABSOLUTE
    applications\parameter.c                 0x00000000   Number         0  parameter.o ABSOLUTE
    applications\pos_ctrl.c                  0x00000000   Number         0  pos_ctrl.o ABSOLUTE
    applications\quar.c                      0x00000000   Number         0  quar.o ABSOLUTE
    applications\rc.c                        0x00000000   Number         0  rc.o ABSOLUTE
    applications\scheduler.c                 0x00000000   Number         0  scheduler.o ABSOLUTE
    applications\spi.c                       0x00000000   Number         0  spi.o ABSOLUTE
    applications\stm32f4xx_it.c              0x00000000   Number         0  stm32f4xx_it.o ABSOLUTE
    dc.s                                     0x00000000   Number         0  dc.o ABSOLUTE
    drivers\\ak8975.c                        0x00000000   Number         0  ak8975.o ABSOLUTE
    drivers\\i2c_soft.c                      0x00000000   Number         0  i2c_soft.o ABSOLUTE
    drivers\\led.c                           0x00000000   Number         0  led.o ABSOLUTE
    drivers\\mpu6050.c                       0x00000000   Number         0  mpu6050.o ABSOLUTE
    drivers\\pwm_out.c                       0x00000000   Number         0  pwm_out.o ABSOLUTE
    drivers\\time.c                          0x00000000   Number         0  time.o ABSOLUTE
    drivers\\ultrasonic.c                    0x00000000   Number         0  ultrasonic.o ABSOLUTE
    drivers\\usart.c                         0x00000000   Number         0  usart.o ABSOLUTE
    drivers\ak8975.c                         0x00000000   Number         0  ak8975.o ABSOLUTE
    drivers\i2c_soft.c                       0x00000000   Number         0  i2c_soft.o ABSOLUTE
    drivers\kf_oldx.c                        0x00000000   Number         0  kf_oldx.o ABSOLUTE
    drivers\led.c                            0x00000000   Number         0  led.o ABSOLUTE
    drivers\mpu6050.c                        0x00000000   Number         0  mpu6050.o ABSOLUTE
    drivers\pwm_out.c                        0x00000000   Number         0  pwm_out.o ABSOLUTE
    drivers\rtGetInf.c                       0x00000000   Number         0  rtgetinf.o ABSOLUTE
    drivers\rtGetNaN.c                       0x00000000   Number         0  rtgetnan.o ABSOLUTE
    drivers\rt_nonfinite.c                   0x00000000   Number         0  rt_nonfinite.o ABSOLUTE
    drivers\time.c                           0x00000000   Number         0  time.o ABSOLUTE
    drivers\ultrasonic.c                     0x00000000   Number         0  ultrasonic.o ABSOLUTE
    drivers\usart.c                          0x00000000   Number         0  usart.o ABSOLUTE
    RESET                                    0x08000000   Section      392  startup_stm32f4xx.o(RESET)
    !!!main                                  0x08000188   Section        8  __main.o(!!!main)
    !!!scatter                               0x08000190   Section       52  __scatter.o(!!!scatter)
    !!dczerorl2                              0x080001c4   Section       90  __dczerorl2.o(!!dczerorl2)
    !!handler_zi                             0x08000220   Section       28  __scatter_zi.o(!!handler_zi)
    .ARM.Collect$$libinit$$00000000          0x0800023c   Section        2  libinit.o(.ARM.Collect$$libinit$$00000000)
    .ARM.Collect$$libinit$$00000001          0x0800023e   Section        4  libinit2.o(.ARM.Collect$$libinit$$00000001)
    .ARM.Collect$$libinit$$00000004          0x08000242   Section        0  libinit2.o(.ARM.Collect$$libinit$$00000004)
    .ARM.Collect$$libinit$$0000000A          0x08000242   Section        0  libinit2.o(.ARM.Collect$$libinit$$0000000A)
    .ARM.Collect$$libinit$$0000000C          0x08000242   Section        0  libinit2.o(.ARM.Collect$$libinit$$0000000C)
    .ARM.Collect$$libinit$$0000000E          0x08000242   Section        0  libinit2.o(.ARM.Collect$$libinit$$0000000E)
    .ARM.Collect$$libinit$$00000011          0x08000242   Section        0  libinit2.o(.ARM.Collect$$libinit$$00000011)
    .ARM.Collect$$libinit$$00000013          0x08000242   Section        0  libinit2.o(.ARM.Collect$$libinit$$00000013)
    .ARM.Collect$$libinit$$00000015          0x08000242   Section        0  libinit2.o(.ARM.Collect$$libinit$$00000015)
    .ARM.Collect$$libinit$$00000017          0x08000242   Section        0  libinit2.o(.ARM.Collect$$libinit$$00000017)
    .ARM.Collect$$libinit$$00000019          0x08000242   Section        0  libinit2.o(.ARM.Collect$$libinit$$00000019)
    .ARM.Collect$$libinit$$0000001B          0x08000242   Section        0  libinit2.o(.ARM.Collect$$libinit$$0000001B)
    .ARM.Collect$$libinit$$0000001D          0x08000242   Section        0  libinit2.o(.ARM.Collect$$libinit$$0000001D)
    .ARM.Collect$$libinit$$0000001F          0x08000242   Section        0  libinit2.o(.ARM.Collect$$libinit$$0000001F)
    .ARM.Collect$$libinit$$00000021          0x08000242   Section        0  libinit2.o(.ARM.Collect$$libinit$$00000021)
    .ARM.Collect$$libinit$$00000023          0x08000242   Section        0  libinit2.o(.ARM.Collect$$libinit$$00000023)
    .ARM.Collect$$libinit$$00000025          0x08000242   Section        0  libinit2.o(.ARM.Collect$$libinit$$00000025)
    .ARM.Collect$$libinit$$0000002C          0x08000242   Section        0  libinit2.o(.ARM.Collect$$libinit$$0000002C)
    .ARM.Collect$$libinit$$0000002E          0x08000242   Section        0  libinit2.o(.ARM.Collect$$libinit$$0000002E)
    .ARM.Collect$$libinit$$00000030          0x08000242   Section        0  libinit2.o(.ARM.Collect$$libinit$$00000030)
    .ARM.Collect$$libinit$$00000032          0x08000242   Section        0  libinit2.o(.ARM.Collect$$libinit$$00000032)
    .ARM.Collect$$libinit$$00000033          0x08000242   Section        2  libinit2.o(.ARM.Collect$$libinit$$00000033)
    .ARM.Collect$$libshutdown$$00000000      0x08000244   Section        2  libshutdown.o(.ARM.Collect$$libshutdown$$00000000)
    .ARM.Collect$$libshutdown$$00000002      0x08000246   Section        0  libshutdown2.o(.ARM.Collect$$libshutdown$$00000002)
    .ARM.Collect$$libshutdown$$00000004      0x08000246   Section        0  libshutdown2.o(.ARM.Collect$$libshutdown$$00000004)
    .ARM.Collect$$libshutdown$$00000007      0x08000246   Section        0  libshutdown2.o(.ARM.Collect$$libshutdown$$00000007)
    .ARM.Collect$$libshutdown$$0000000A      0x08000246   Section        0  libshutdown2.o(.ARM.Collect$$libshutdown$$0000000A)
    .ARM.Collect$$libshutdown$$0000000C      0x08000246   Section        0  libshutdown2.o(.ARM.Collect$$libshutdown$$0000000C)
    .ARM.Collect$$libshutdown$$0000000F      0x08000246   Section        0  libshutdown2.o(.ARM.Collect$$libshutdown$$0000000F)
    .ARM.Collect$$libshutdown$$00000010      0x08000246   Section        2  libshutdown2.o(.ARM.Collect$$libshutdown$$00000010)
    .ARM.Collect$$rtentry$$00000000          0x08000248   Section        0  __rtentry.o(.ARM.Collect$$rtentry$$00000000)
    .ARM.Collect$$rtentry$$00000002          0x08000248   Section        0  __rtentry2.o(.ARM.Collect$$rtentry$$00000002)
    .ARM.Collect$$rtentry$$00000004          0x08000248   Section        6  __rtentry4.o(.ARM.Collect$$rtentry$$00000004)
    .ARM.Collect$$rtentry$$00000009          0x0800024e   Section        0  __rtentry2.o(.ARM.Collect$$rtentry$$00000009)
    .ARM.Collect$$rtentry$$0000000A          0x0800024e   Section        4  __rtentry2.o(.ARM.Collect$$rtentry$$0000000A)
    .ARM.Collect$$rtentry$$0000000C          0x08000252   Section        0  __rtentry2.o(.ARM.Collect$$rtentry$$0000000C)
    .ARM.Collect$$rtentry$$0000000D          0x08000252   Section        8  __rtentry2.o(.ARM.Collect$$rtentry$$0000000D)
    .ARM.Collect$$rtexit$$00000000           0x0800025a   Section        2  rtexit.o(.ARM.Collect$$rtexit$$00000000)
    .ARM.Collect$$rtexit$$00000002           0x0800025c   Section        0  rtexit2.o(.ARM.Collect$$rtexit$$00000002)
    .ARM.Collect$$rtexit$$00000003           0x0800025c   Section        4  rtexit2.o(.ARM.Collect$$rtexit$$00000003)
    .ARM.Collect$$rtexit$$00000004           0x08000260   Section        6  rtexit2.o(.ARM.Collect$$rtexit$$00000004)
    .text                                    0x08000268   Section        0  scheduler.o(.text)
    .text                                    0x0800183c   Section        0  init.o(.text)
    .text                                    0x0800196c   Section        0  parameter.o(.text)
    Para_ReadSettingFromFile                 0x0800196d   Thumb Code     2  parameter.o(.text)
    Para_WriteSettingToFile                  0x0800196f   Thumb Code     2  parameter.o(.text)
    Param_SetSettingToFC                     0x08001971   Thumb Code   186  parameter.o(.text)
    .text                                    0x08001edc   Section        0  fly_mode.o(.text)
    .text                                    0x08001fc4   Section        0  main.o(.text)
    .text                                    0x08001fd8   Section        0  stm32f4xx_it.o(.text)
    .text                                    0x08002004   Section        0  pwm_out.o(.text)
    .text                                    0x080023d0   Section        0  iic_hml.o(.text)
    .text                                    0x080027f4   Section        0  i2c_soft.o(.text)
    .text                                    0x08002b9c   Section        0  led.o(.text)
    .text                                    0x08002c08   Section        0  flash.o(.text)
    .text                                    0x080038b0   Section        0  time.o(.text)
    .text                                    0x08003b30   Section        0  spi.o(.text)
    .text                                    0x08003cf4   Section        0  misc.o(.text)
    .text                                    0x08003dd4   Section        0  stm32f4xx_dma.o(.text)
    .text                                    0x0800417c   Section        0  stm32f4xx_flash.o(.text)
    .text                                    0x08004638   Section        0  stm32f4xx_gpio.o(.text)
    .text                                    0x08004894   Section        0  stm32f4xx_rcc.o(.text)
    .text                                    0x08004e1c   Section        0  stm32f4xx_spi.o(.text)
    .text                                    0x08005214   Section        0  stm32f4xx_tim.o(.text)
    TI4_Config                               0x080059b3   Thumb Code    80  stm32f4xx_tim.o(.text)
    TI3_Config                               0x08005a15   Thumb Code    72  stm32f4xx_tim.o(.text)
    TI2_Config                               0x08005a77   Thumb Code    90  stm32f4xx_tim.o(.text)
    TI1_Config                               0x08005ae3   Thumb Code    58  stm32f4xx_tim.o(.text)
    .text                                    0x08005eb8   Section        0  stm32f4xx_usart.o(.text)
    .text                                    0x080062d4   Section        0  system_stm32f4xx.o(.text)
    SetSysClock                              0x080062d5   Thumb Code   220  system_stm32f4xx.o(.text)
    .text                                    0x080064e4   Section       64  startup_stm32f4xx.o(.text)
    $v0                                      0x080064e4   Number         0  startup_stm32f4xx.o(.text)
    .text                                    0x08006524   Section        0  imu.o(.text)
    .text                                    0x08009944   Section        0  alt_fushion.o(.text)
    navUkfRotateVecByRevMatrix               0x08009b33   Thumb Code   122  alt_fushion.o(.text)
    .text                                    0x0800a83c   Section        0  mymath.o(.text)
    .text                                    0x0800b14c   Section        0  filter.o(.text)
    .text                                    0x0800b83c   Section        0  fastmath.o(.text)
    .text                                    0x0800cc34   Section        0  quar.o(.text)
    .text                                    0x0800ee04   Section        0  ctrl.o(.text)
    .text                                    0x08010d7c   Section        0  height_ctrl.o(.text)
    .text                                    0x08012be0   Section        0  pos_ctrl.o(.text)
    .text                                    0x08016640   Section        0  usart.o(.text)
    Send_Data_UP_LINK                        0x08016697   Thumb Code    26  usart.o(.text)
    Send_Data_APP                            0x080166cd   Thumb Code    26  usart.o(.text)
    Send_Data_SD                             0x08016703   Thumb Code    26  usart.o(.text)
    Send_Data_GOL_LINK                       0x08017c13   Thumb Code    26  usart.o(.text)
    Send_Data_GPS                            0x0801b36b   Thumb Code    26  usart.o(.text)
    Send_Data_GOL_LINK_NAV                   0x0801b6fd   Thumb Code    26  usart.o(.text)
    .text                                    0x0801e9e8   Section        0  data_transfer.o(.text)
    ANO_DT_Send_Check                        0x0801e9f9   Thumb Code    62  data_transfer.o(.text)
    ANO_DT_Send_Msg                          0x0801ea37   Thumb Code    62  data_transfer.o(.text)
    .text                                    0x0802128c   Section        0  rc.o(.text)
    .text                                    0x080218f8   Section        0  dma.o(.text)
    .text                                    0x080219e0   Section        0  mpu6050.o(.text)
    .text                                    0x08022378   Section        0  ak8975.o(.text)
    .text                                    0x08022ca4   Section        0  bmp.o(.text)
    .text                                    0x08023420   Section        0  ultrasonic.o(.text)
    sonar_bubble_sort                        0x08023625   Thumb Code    96  ultrasonic.o(.text)
    .text                                    0x080237d8   Section        0  anotc_baro_ctrl.o(.text)
    .text                                    0x08023dbc   Section        0  kf_oldx.o(.text)
    inv                                      0x08023dbd   Thumb Code  1628  kf_oldx.o(.text)
    rt_powd_snf                              0x08024419   Thumb Code   592  kf_oldx.o(.text)
    .text                                    0x08025514   Section        0  eso.o(.text)
    my_deathzoom1                            0x08025515   Thumb Code    62  eso.o(.text)
    my_sqrt                                  0x08025553   Thumb Code    88  eso.o(.text)
    sign                                     0x080255ab   Thumb Code    40  eso.o(.text)
    fst2                                     0x080255d3   Thumb Code   430  eso.o(.text)
    fst                                      0x08025781   Thumb Code   540  eso.o(.text)
    fal                                      0x0802599d   Thumb Code   330  eso.o(.text)
    ESO_Safe                                 0x08025ae7   Thumb Code   226  eso.o(.text)
    .text                                    0x08026a20   Section        0  rt_nonfinite.o(.text)
    .text                                    0x08026b20   Section        0  rtgetinf.o(.text)
    .text                                    0x08026c54   Section        0  rtgetnan.o(.text)
    .text                                    0x08026d1c   Section       72  llsdiv.o(.text)
    .text                                    0x08026d64   Section      100  rt_memcpy_w.o(.text)
    .text                                    0x08026dc8   Section       78  rt_memclr_w.o(.text)
    .text                                    0x08026e16   Section        0  heapauxi.o(.text)
    .text                                    0x08026e1c   Section      238  lludivv7m.o(.text)
    .text                                    0x08026f0a   Section        0  _rserrno.o(.text)
    .text                                    0x08026f20   Section        8  rt_errno_addr_intlibspace.o(.text)
    .text                                    0x08026f28   Section        8  libspace.o(.text)
    .text                                    0x08026f30   Section       74  sys_stackheap_outer.o(.text)
    .text                                    0x08026f7a   Section        0  exit.o(.text)
    .text                                    0x08026f8c   Section        0  sys_exit.o(.text)
    .text                                    0x08026f98   Section        2  use_no_semi.o(.text)
    .text                                    0x08026f9a   Section        0  indicate_semi.o(.text)
    i.__ARM_fpclassify                       0x08026f9a   Section        0  fpclassify.o(i.__ARM_fpclassify)
    i.__ARM_fpclassifyf                      0x08026fca   Section        0  fpclassifyf.o(i.__ARM_fpclassifyf)
    i.__hardfp_asin                          0x08026ff0   Section        0  asin.o(i.__hardfp_asin)
    i.__hardfp_asinf                         0x08027350   Section        0  asinf.o(i.__hardfp_asinf)
    i.__hardfp_atan                          0x08027480   Section        0  atan.o(i.__hardfp_atan)
    i.__hardfp_atan2                         0x08027758   Section        0  atan2.o(i.__hardfp_atan2)
    i.__hardfp_atan2f                        0x08027948   Section        0  atan2f.o(i.__hardfp_atan2f)
    i.__hardfp_cos                           0x08027b98   Section        0  cos.o(i.__hardfp_cos)
    i.__hardfp_cosf                          0x08027c60   Section        0  cosf.o(i.__hardfp_cosf)
    i.__hardfp_fabs                          0x08027db0   Section        0  fabs.o(i.__hardfp_fabs)
    i.__hardfp_floor                         0x08027dc8   Section        0  floor.o(i.__hardfp_floor)
    i.__hardfp_pow                           0x08027ee0   Section        0  pow.o(i.__hardfp_pow)
    i.__hardfp_sin                           0x08028b30   Section        0  sin.o(i.__hardfp_sin)
    i.__hardfp_sinf                          0x08028bf8   Section        0  sinf.o(i.__hardfp_sinf)
    i.__hardfp_sqrt                          0x08028d88   Section        0  sqrt.o(i.__hardfp_sqrt)
    i.__hardfp_sqrtf                         0x08028e02   Section        0  sqrtf.o(i.__hardfp_sqrtf)
    i.__ieee754_rem_pio2                     0x08028e40   Section        0  rred.o(i.__ieee754_rem_pio2)
    i.__kernel_cos                           0x08029278   Section        0  cos_i.o(i.__kernel_cos)
    i.__kernel_poly                          0x080293e8   Section        0  poly.o(i.__kernel_poly)
    i.__kernel_sin                           0x080294e0   Section        0  sin_i.o(i.__kernel_sin)
    i.__mathlib_dbl_divzero                  0x08029610   Section        0  dunder.o(i.__mathlib_dbl_divzero)
    i.__mathlib_dbl_infnan                   0x08029640   Section        0  dunder.o(i.__mathlib_dbl_infnan)
    i.__mathlib_dbl_infnan2                  0x08029654   Section        0  dunder.o(i.__mathlib_dbl_infnan2)
    i.__mathlib_dbl_invalid                  0x08029668   Section        0  dunder.o(i.__mathlib_dbl_invalid)
    i.__mathlib_dbl_overflow                 0x08029688   Section        0  dunder.o(i.__mathlib_dbl_overflow)
    i.__mathlib_dbl_underflow                0x080296a8   Section        0  dunder.o(i.__mathlib_dbl_underflow)
    i.__mathlib_flt_infnan                   0x080296c8   Section        0  funder.o(i.__mathlib_flt_infnan)
    i.__mathlib_flt_infnan2                  0x080296ce   Section        0  funder.o(i.__mathlib_flt_infnan2)
    i.__mathlib_flt_invalid                  0x080296d4   Section        0  funder.o(i.__mathlib_flt_invalid)
    i.__mathlib_flt_underflow                0x080296e4   Section        0  funder.o(i.__mathlib_flt_underflow)
    i.__mathlib_rredf2                       0x080296f4   Section        0  rredf.o(i.__mathlib_rredf2)
    i.atan                                   0x08029848   Section        0  atan.o(i.atan)
    i.fabs                                   0x08029858   Section        0  fabs.o(i.fabs)
    i.sqrt                                   0x08029870   Section        0  sqrt.o(i.sqrt)
    i.sqrtf                                  0x080298de   Section        0  sqrtf.o(i.sqrtf)
    x$fpl$basic                              0x0802991c   Section       24  basic.o(x$fpl$basic)
    $v0                                      0x0802991c   Number         0  basic.o(x$fpl$basic)
    x$fpl$d2f                                0x08029934   Section       98  d2f.o(x$fpl$d2f)
    $v0                                      0x08029934   Number         0  d2f.o(x$fpl$d2f)
    x$fpl$dadd                               0x08029998   Section      336  daddsub_clz.o(x$fpl$dadd)
    $v0                                      0x08029998   Number         0  daddsub_clz.o(x$fpl$dadd)
    _dadd1                                   0x080299a9   Thumb Code     0  daddsub_clz.o(x$fpl$dadd)
    x$fpl$dcheck1                            0x08029ae8   Section       16  dcheck1.o(x$fpl$dcheck1)
    $v0                                      0x08029ae8   Number         0  dcheck1.o(x$fpl$dcheck1)
    x$fpl$dcmpinf                            0x08029af8   Section       24  dcmpi.o(x$fpl$dcmpinf)
    $v0                                      0x08029af8   Number         0  dcmpi.o(x$fpl$dcmpinf)
    x$fpl$ddiv                               0x08029b10   Section      688  ddiv.o(x$fpl$ddiv)
    $v0                                      0x08029b10   Number         0  ddiv.o(x$fpl$ddiv)
    ddiv_entry                               0x08029b17   Thumb Code     0  ddiv.o(x$fpl$ddiv)
    x$fpl$deqf                               0x08029dc0   Section      120  deqf.o(x$fpl$deqf)
    $v0                                      0x08029dc0   Number         0  deqf.o(x$fpl$deqf)
    x$fpl$dfix                               0x08029e38   Section       94  dfix.o(x$fpl$dfix)
    $v0                                      0x08029e38   Number         0  dfix.o(x$fpl$dfix)
    x$fpl$dflt                               0x08029e96   Section       46  dflt_clz.o(x$fpl$dflt)
    $v0                                      0x08029e96   Number         0  dflt_clz.o(x$fpl$dflt)
    x$fpl$dfltu                              0x08029ec4   Section       38  dflt_clz.o(x$fpl$dfltu)
    $v0                                      0x08029ec4   Number         0  dflt_clz.o(x$fpl$dfltu)
    x$fpl$dleqf                              0x08029eec   Section      120  dleqf.o(x$fpl$dleqf)
    $v0                                      0x08029eec   Number         0  dleqf.o(x$fpl$dleqf)
    x$fpl$dmul                               0x08029f64   Section      340  dmul.o(x$fpl$dmul)
    $v0                                      0x08029f64   Number         0  dmul.o(x$fpl$dmul)
    x$fpl$dnaninf                            0x0802a0b8   Section      156  dnaninf.o(x$fpl$dnaninf)
    $v0                                      0x0802a0b8   Number         0  dnaninf.o(x$fpl$dnaninf)
    x$fpl$dretinf                            0x0802a154   Section       12  dretinf.o(x$fpl$dretinf)
    $v0                                      0x0802a154   Number         0  dretinf.o(x$fpl$dretinf)
    x$fpl$drleqf                             0x0802a160   Section      108  drleqf.o(x$fpl$drleqf)
    $v0                                      0x0802a160   Number         0  drleqf.o(x$fpl$drleqf)
    x$fpl$drsb                               0x0802a1cc   Section       22  daddsub_clz.o(x$fpl$drsb)
    $v0                                      0x0802a1cc   Number         0  daddsub_clz.o(x$fpl$drsb)
    x$fpl$dsqrt                              0x0802a1e4   Section      408  dsqrt_umaal.o(x$fpl$dsqrt)
    $v0                                      0x0802a1e4   Number         0  dsqrt_umaal.o(x$fpl$dsqrt)
    x$fpl$dsub                               0x0802a37c   Section      468  daddsub_clz.o(x$fpl$dsub)
    $v0                                      0x0802a37c   Number         0  daddsub_clz.o(x$fpl$dsub)
    _dsub1                                   0x0802a38d   Thumb Code     0  daddsub_clz.o(x$fpl$dsub)
    x$fpl$f2d                                0x0802a550   Section       86  f2d.o(x$fpl$f2d)
    $v0                                      0x0802a550   Number         0  f2d.o(x$fpl$f2d)
    x$fpl$ffltll                             0x0802a5a6   Section       96  ffltll_clz.o(x$fpl$ffltll)
    $v0                                      0x0802a5a6   Number         0  ffltll_clz.o(x$fpl$ffltll)
    x$fpl$fnaninf                            0x0802a606   Section      140  fnaninf.o(x$fpl$fnaninf)
    $v0                                      0x0802a606   Number         0  fnaninf.o(x$fpl$fnaninf)
    x$fpl$fpinit                             0x0802a692   Section       10  fpinit.o(x$fpl$fpinit)
    $v0                                      0x0802a692   Number         0  fpinit.o(x$fpl$fpinit)
    x$fpl$fretinf                            0x0802a69c   Section       10  fretinf.o(x$fpl$fretinf)
    $v0                                      0x0802a69c   Number         0  fretinf.o(x$fpl$fretinf)
    x$fpl$retnan                             0x0802a6a6   Section      100  retnan.o(x$fpl$retnan)
    $v0                                      0x0802a6a6   Number         0  retnan.o(x$fpl$retnan)
    x$fpl$scalbn                             0x0802a70a   Section       92  scalbn.o(x$fpl$scalbn)
    $v0                                      0x0802a70a   Number         0  scalbn.o(x$fpl$scalbn)
    x$fpl$trapveneer                         0x0802a766   Section       48  trapv.o(x$fpl$trapveneer)
    $v0                                      0x0802a766   Number         0  trapv.o(x$fpl$trapveneer)
    x$fpl$usenofp                            0x0802a796   Section        0  usenofp.o(x$fpl$usenofp)
    .constdata                               0x0802a798   Section       48  parameter.o(.constdata)
    .constdata                               0x0802a7c8   Section       24  alt_fushion.o(.constdata)
    .constdata                               0x0802a7e0   Section     2176  fastmath.o(.constdata)
    a1l                                      0x0802afe4   Data          72  fastmath.o(.constdata)
    a2l                                      0x0802b02c   Data          36  fastmath.o(.constdata)
    a                                        0x0802b050   Data          16  fastmath.o(.constdata)
    .constdata                               0x0802b060   Section       36  quar.o(.constdata)
    .constdata                               0x0802b084   Section       28  pos_ctrl.o(.constdata)
    .constdata                               0x0802b0a0   Section      132  kf_oldx.o(.constdata)
    iv0                                      0x0802b0a0   Data          12  kf_oldx.o(.constdata)
    b_b                                      0x0802b0ac   Data          36  kf_oldx.o(.constdata)
    dv0                                      0x0802b0d0   Data          24  kf_oldx.o(.constdata)
    dv1                                      0x0802b0e8   Data          24  kf_oldx.o(.constdata)
    I                                        0x0802b100   Data          36  kf_oldx.o(.constdata)
    .constdata                               0x0802b128   Section       80  asin.o(.constdata)
    pS                                       0x0802b128   Data          48  asin.o(.constdata)
    qS                                       0x0802b158   Data          32  asin.o(.constdata)
    .constdata                               0x0802b178   Section      152  atan.o(.constdata)
    atanhi                                   0x0802b178   Data          32  atan.o(.constdata)
    atanlo                                   0x0802b198   Data          32  atan.o(.constdata)
    aTodd                                    0x0802b1b8   Data          40  atan.o(.constdata)
    aTeven                                   0x0802b1e0   Data          48  atan.o(.constdata)
    .constdata                               0x0802b210   Section      136  pow.o(.constdata)
    bp                                       0x0802b210   Data          16  pow.o(.constdata)
    dp_h                                     0x0802b220   Data          16  pow.o(.constdata)
    dp_l                                     0x0802b230   Data          16  pow.o(.constdata)
    L                                        0x0802b240   Data          48  pow.o(.constdata)
    P                                        0x0802b270   Data          40  pow.o(.constdata)
    .constdata                               0x0802b298   Section       48  cos_i.o(.constdata)
    C                                        0x0802b298   Data          48  cos_i.o(.constdata)
    .constdata                               0x0802b2c8   Section        8  qnan.o(.constdata)
    .constdata                               0x0802b2d0   Section      200  rred.o(.constdata)
    pio2s                                    0x0802b2d0   Data          48  rred.o(.constdata)
    twooverpi                                0x0802b300   Data         152  rred.o(.constdata)
    .constdata                               0x0802b398   Section       32  rredf.o(.constdata)
    twooverpi                                0x0802b398   Data          32  rredf.o(.constdata)
    .constdata                               0x0802b3b8   Section       40  sin_i.o(.constdata)
    S                                        0x0802b3b8   Data          40  sin_i.o(.constdata)
    .data                                    0x20000000   Section       55  scheduler.o(.data)
    init                                     0x20000027   Data           1  scheduler.o(.data)
    cnt                                      0x20000028   Data           1  scheduler.o(.data)
    cnt_init                                 0x2000002a   Data           2  scheduler.o(.data)
    cnt                                      0x2000002c   Data           1  scheduler.o(.data)
    cnt_bmp                                  0x2000002d   Data           1  scheduler.o(.data)
    cnt                                      0x2000002e   Data           4  scheduler.o(.data)
    sd_sel                                   0x20000032   Data           1  scheduler.o(.data)
    cnt_sonar_idle                           0x20000034   Data           2  scheduler.o(.data)
    led_cnt                                  0x20000036   Data           1  scheduler.o(.data)
    .data                                    0x20000037   Section        4  init.o(.data)
    .data                                    0x2000003c   Section       12  parameter.o(.data)
    .data                                    0x20000048   Section        8  fly_mode.o(.data)
    .data                                    0x20000050   Section        1  main.o(.data)
    .data                                    0x20000052   Section       14  pwm_out.o(.data)
    .data                                    0x20000060   Section        1  i2c_soft.o(.data)
    .data                                    0x20000061   Section        1  led.o(.data)
    flag                                     0x20000061   Data           1  led.o(.data)
    .data                                    0x20000064   Section       16  flash.o(.data)
    .data                                    0x20000074   Section       20  time.o(.data)
    .data                                    0x20000088   Section        1  spi.o(.data)
    cnt                                      0x20000088   Data           1  spi.o(.data)
    .data                                    0x20000089   Section       16  stm32f4xx_rcc.o(.data)
    APBAHBPrescTable                         0x20000089   Data          16  stm32f4xx_rcc.o(.data)
    .data                                    0x2000009c   Section       20  system_stm32f4xx.o(.data)
    .data                                    0x200000b0   Section      312  imu.o(.data)
    init                                     0x200001d8   Data           1  imu.o(.data)
    yaw_correct                              0x200001dc   Data           4  imu.o(.data)
    init_cnt                                 0x200001e0   Data           2  imu.o(.data)
    accMagP                                  0x200001e4   Data           4  imu.o(.data)
    .data                                    0x200001e8   Section      524  alt_fushion.o(.data)
    init                                     0x200003d8   Data           1  alt_fushion.o(.data)
    mode_reg                                 0x200003d9   Data           1  alt_fushion.o(.data)
    temp_r                                   0x200003dc   Data           4  alt_fushion.o(.data)
    wz_acc                                   0x200003e0   Data           4  alt_fushion.o(.data)
    acc_bais                                 0x200003e4   Data           4  alt_fushion.o(.data)
    baro_av_cnt_fu                           0x200003e8   Data           2  alt_fushion.o(.data)
    spd_r                                    0x200003ec   Data           4  alt_fushion.o(.data)
    spd_r_imu                                0x200003f0   Data           4  alt_fushion.o(.data)
    .data                                    0x200003f4   Section     1028  mymath.o(.data)
    .data                                    0x200007f8   Section       37  filter.o(.data)
    pn                                       0x20000810   Data           1  filter.o(.data)
    h_tmp_x                                  0x20000814   Data           4  filter.o(.data)
    h_tmp_y                                  0x20000818   Data           4  filter.o(.data)
    init                                     0x2000081c   Data           1  filter.o(.data)
    .data                                    0x20000820   Section       56  ctrl.o(.data)
    yaw_trig                                 0x20000848   Data           1  ctrl.o(.data)
    fly_ready_r                              0x20000849   Data           1  ctrl.o(.data)
    thr                                      0x2000084c   Data           4  ctrl.o(.data)
    Thr_tmp                                  0x20000850   Data           4  ctrl.o(.data)
    state                                    0x20000854   Data           1  ctrl.o(.data)
    cnt                                      0x20000856   Data           2  ctrl.o(.data)
    .data                                    0x20000858   Section      360  height_ctrl.o(.data)
    state                                    0x20000970   Data           1  height_ctrl.o(.data)
    cnt                                      0x20000972   Data           2  height_ctrl.o(.data)
    cnt1                                     0x20000974   Data           2  height_ctrl.o(.data)
    hs_ctrl_cnt                              0x20000976   Data           1  height_ctrl.o(.data)
    wz_speed_t                               0x20000978   Data           4  height_ctrl.o(.data)
    height_ctrl_start_f                      0x2000097c   Data           1  height_ctrl.o(.data)
    height_mode_reg                          0x2000097d   Data           1  height_ctrl.o(.data)
    hc_start_delay                           0x2000097e   Data           2  height_ctrl.o(.data)
    init                                     0x20000980   Data           1  height_ctrl.o(.data)
    cnt_100ms                                0x20000981   Data           1  height_ctrl.o(.data)
    safe_mode_reg                            0x20000982   Data           1  height_ctrl.o(.data)
    state_thr                                0x20000983   Data           1  height_ctrl.o(.data)
    cnt_down                                 0x20000984   Data           1  height_ctrl.o(.data)
    thr_reg                                  0x20000988   Data           4  height_ctrl.o(.data)
    state                                    0x2000098c   Data           1  height_ctrl.o(.data)
    thr_lpf                                  0x20000990   Data           4  height_ctrl.o(.data)
    lpf_tmp                                  0x20000994   Data           4  height_ctrl.o(.data)
    hc_speed_i                               0x20000998   Data           4  height_ctrl.o(.data)
    hc_speed_i_2                             0x2000099c   Data           4  height_ctrl.o(.data)
    wz_speed_0                               0x200009a0   Data           4  height_ctrl.o(.data)
    wz_speed_1                               0x200009a4   Data           4  height_ctrl.o(.data)
    wz_speed_2                               0x200009a8   Data           4  height_ctrl.o(.data)
    hc_acc_i                                 0x200009ac   Data           4  height_ctrl.o(.data)
    bmp_expr                                 0x200009b0   Data           4  height_ctrl.o(.data)
    h_reg                                    0x200009b4   Data           8  height_ctrl.o(.data)
    cnt_in_mid                               0x200009bc   Data           2  height_ctrl.o(.data)
    state_high_set                           0x200009be   Data           1  height_ctrl.o(.data)
    mode_safe_reg                            0x200009bf   Data           1  height_ctrl.o(.data)
    .data                                    0x200009c0   Section      294  pos_ctrl.o(.data)
    r_x_now                                  0x20000a98   Data           4  pos_ctrl.o(.data)
    r_exp_x                                  0x20000a9c   Data           4  pos_ctrl.o(.data)
    r_exp_y                                  0x20000aa0   Data           4  pos_ctrl.o(.data)
    r_y_now                                  0x20000aa4   Data           4  pos_ctrl.o(.data)
    r_exp_z                                  0x20000aa8   Data           4  pos_ctrl.o(.data)
    r_z_now                                  0x20000aac   Data           4  pos_ctrl.o(.data)
    init_pos                                 0x20000ab0   Data           8  pos_ctrl.o(.data)
    mode_circle_reg                          0x20000ab8   Data           1  pos_ctrl.o(.data)
    line_flag                                0x20000ab9   Data           1  pos_ctrl.o(.data)
    tangle_flag                              0x20000aba   Data           1  pos_ctrl.o(.data)
    cnt                                      0x20000abb   Data           2  pos_ctrl.o(.data)
    init                                     0x20000abd   Data           1  pos_ctrl.o(.data)
    pos_reset_state                          0x20000abe   Data           2  pos_ctrl.o(.data)
    pos_reset_cnt                            0x20000ac0   Data           4  pos_ctrl.o(.data)
    mode_flow_hold_position_reg              0x20000ac4   Data           1  pos_ctrl.o(.data)
    acc_flt                                  0x20000ac8   Data           8  pos_ctrl.o(.data)
    state_tune_spd                           0x20000ad0   Data           1  pos_ctrl.o(.data)
    flag_way                                 0x20000ad1   Data           1  pos_ctrl.o(.data)
    cnt_s1                                   0x20000ad2   Data           2  pos_ctrl.o(.data)
    spd_old                                  0x20000ad4   Data           8  pos_ctrl.o(.data)
    acc_old                                  0x20000adc   Data           8  pos_ctrl.o(.data)
    move                                     0x20000ae4   Data           2  pos_ctrl.o(.data)
    .data                                    0x20000ae8   Section      292  usart.o(.data)
    _data_len                                0x20000b26   Data           1  usart.o(.data)
    _data_cnt                                0x20000b27   Data           1  usart.o(.data)
    _data_len5                               0x20000b36   Data           1  usart.o(.data)
    _data_cnt5                               0x20000b37   Data           1  usart.o(.data)
    _data_len_app                            0x20000bba   Data           1  usart.o(.data)
    _data_cnt_app                            0x20000bbb   Data           1  usart.o(.data)
    _data_len4                               0x20000bc8   Data           1  usart.o(.data)
    _data_cnt4                               0x20000bc9   Data           1  usart.o(.data)
    _data_len3                               0x20000bd4   Data           1  usart.o(.data)
    _data_cnt3                               0x20000bd5   Data           1  usart.o(.data)
    reg                                      0x20000be5   Data           1  usart.o(.data)
    cnt                                      0x20000be6   Data           4  usart.o(.data)
    yaw_sel                                  0x20000bea   Data           1  usart.o(.data)
    x                                        0x20000bec   Data           4  usart.o(.data)
    y                                        0x20000bf0   Data           4  usart.o(.data)
    z                                        0x20000bf4   Data           4  usart.o(.data)
    flag1                                    0x20000bf8   Data           1  usart.o(.data)
    cnt                                      0x20000bf9   Data           1  usart.o(.data)
    cnt                                      0x20000bfa   Data           4  usart.o(.data)
    flag                                     0x20000bfe   Data           1  usart.o(.data)
    x                                        0x20000c00   Data           4  usart.o(.data)
    y                                        0x20000c04   Data           4  usart.o(.data)
    z                                        0x20000c08   Data           4  usart.o(.data)
    .data                                    0x20000c0c   Section       40  data_transfer.o(.data)
    pos_off                                  0x20000c1c   Data           8  data_transfer.o(.data)
    cnt1                                     0x20000c24   Data           1  data_transfer.o(.data)
    cnt                                      0x20000c25   Data           1  data_transfer.o(.data)
    senser_cnt                               0x20000c26   Data           1  data_transfer.o(.data)
    senser2_cnt                              0x20000c27   Data           1  data_transfer.o(.data)
    user_cnt                                 0x20000c28   Data           1  data_transfer.o(.data)
    status_cnt                               0x20000c29   Data           1  data_transfer.o(.data)
    rcdata_cnt                               0x20000c2a   Data           1  data_transfer.o(.data)
    motopwm_cnt                              0x20000c2b   Data           1  data_transfer.o(.data)
    power_cnt                                0x20000c2c   Data           1  data_transfer.o(.data)
    speed_cnt                                0x20000c2d   Data           1  data_transfer.o(.data)
    location_cnt                             0x20000c2e   Data           1  data_transfer.o(.data)
    qr_cnt                                   0x20000c2f   Data           1  data_transfer.o(.data)
    state_mine                               0x20000c30   Data           1  data_transfer.o(.data)
    _data_len                                0x20000c31   Data           1  data_transfer.o(.data)
    _data_cnt                                0x20000c32   Data           1  data_transfer.o(.data)
    state                                    0x20000c33   Data           1  data_transfer.o(.data)
    .data                                    0x20000c34   Section       72  rc.o(.data)
    .data                                    0x20000c7c   Section       28  mpu6050.o(.data)
    .data                                    0x20000c98   Section      256  ak8975.o(.data)
    b_IIR_hml                                0x20000cf8   Data          40  ak8975.o(.data)
    a_IIR_hml                                0x20000d20   Data          40  ak8975.o(.data)
    offset_mx                                0x20000d64   Data           2  ak8975.o(.data)
    offset_my                                0x20000d66   Data           2  ak8975.o(.data)
    offset_mz                                0x20000d68   Data           2  ak8975.o(.data)
    mx_scale                                 0x20000d6c   Data           4  ak8975.o(.data)
    my_scale                                 0x20000d70   Data           4  ak8975.o(.data)
    mz_scale                                 0x20000d74   Data           4  ak8975.o(.data)
    cal_init                                 0x20000d78   Data           1  ak8975.o(.data)
    MagMAX                                   0x20000d7c   Data          12  ak8975.o(.data)
    MagMIN                                   0x20000d88   Data          12  ak8975.o(.data)
    cnt_m                                    0x20000d94   Data           2  ak8975.o(.data)
    hml_cal_temp                             0x20000d96   Data           1  ak8975.o(.data)
    state_cal_hml                            0x20000d97   Data           1  ak8975.o(.data)
    .data                                    0x20000d98   Section      141  bmp.o(.data)
    Now_doing                                0x20000db5   Data           1  bmp.o(.data)
    Current_delay                            0x20000db8   Data           4  bmp.o(.data)
    Start_Convert_Time                       0x20000dbc   Data           4  bmp.o(.data)
    tempCache                                0x20000dc0   Data           4  bmp.o(.data)
    Alt_Offset_m                             0x20000dc4   Data           4  bmp.o(.data)
    Alt_offset_Pa                            0x20000dc8   Data           4  bmp.o(.data)
    Temp_buffer                              0x20000e00   Data           4  bmp.o(.data)
    Press_buffer                             0x20000e04   Data           4  bmp.o(.data)
    Alt_buffer                               0x20000e08   Data           4  bmp.o(.data)
    temp_index                               0x20000e0c   Data           1  bmp.o(.data)
    press_index                              0x20000e0d   Data           1  bmp.o(.data)
    Altitude                                 0x20000e14   Data           4  bmp.o(.data)
    AltPre                                   0x20000e18   Data           4  bmp.o(.data)
    tp                                       0x20000e1c   Data           4  bmp.o(.data)
    lastPress                                0x20000e20   Data           4  bmp.o(.data)
    cnt                                      0x20000e24   Data           1  bmp.o(.data)
    .data                                    0x20000e28   Section       13  ultrasonic.o(.data)
    insert_index                             0x20000e30   Data           4  ultrasonic.o(.data)
    ultra_tmp                                0x20000e34   Data           1  ultrasonic.o(.data)
    .data                                    0x20000e38   Section       76  anotc_baro_ctrl.o(.data)
    com_val                                  0x20000e7c   Data           4  anotc_baro_ctrl.o(.data)
    com_tar                                  0x20000e80   Data           4  anotc_baro_ctrl.o(.data)
    .data                                    0x20000e84   Section       64  eso.o(.data)
    Thr_tmp                                  0x20000e90   Data           4  eso.o(.data)
    e0                                       0x20000e94   Data           4  eso.o(.data)
    e1                                       0x20000e98   Data           4  eso.o(.data)
    e2                                       0x20000e9c   Data           4  eso.o(.data)
    e0                                       0x20000ea0   Data           4  eso.o(.data)
    e1                                       0x20000ea4   Data           4  eso.o(.data)
    e2                                       0x20000ea8   Data           4  eso.o(.data)
    init                                     0x20000eac   Data           1  eso.o(.data)
    reg_e                                    0x20000eb0   Data           4  eso.o(.data)
    reg_e1                                   0x20000eb4   Data           4  eso.o(.data)
    Tv                                       0x20000eb8   Data           4  eso.o(.data)
    Tv1                                      0x20000ebc   Data           4  eso.o(.data)
    b0                                       0x20000ec0   Data           4  eso.o(.data)
    .data                                    0x20000ec8   Section       36  rt_nonfinite.o(.data)
    .bss                                     0x20000eec   Section       52  scheduler.o(.bss)
    .bss                                     0x20000f20   Section      256  parameter.o(.bss)
    .bss                                     0x20001020   Section       96  fly_mode.o(.bss)
    .bss                                     0x20001080   Section     4296  flash.o(.bss)
    .bss                                     0x20002148   Section      360  time.o(.bss)
    .bss                                     0x200022b0   Section       10  spi.o(.bss)
    .bss                                     0x200022bc   Section      200  imu.o(.bss)
    mag_tmp                                  0x20002378   Data          12  imu.o(.bss)
    .bss                                     0x20002388   Section      716  alt_fushion.o(.bss)
    xBuf1                                    0x2000251c   Data          12  alt_fushion.o(.bss)
    yBuf1                                    0x20002528   Data          12  alt_fushion.o(.bss)
    xBuf2                                    0x20002534   Data          12  alt_fushion.o(.bss)
    yBuf2                                    0x20002540   Data          12  alt_fushion.o(.bss)
    baro_av_arr_fu                           0x2000254c   Data         264  alt_fushion.o(.bss)
    .bss                                     0x20002654   Section      100  filter.o(.bss)
    .bss                                     0x200026b8   Section      228  quar.o(.bss)
    .bss                                     0x2000279c   Section      516  ctrl.o(.bss)
    .bss                                     0x200029a0   Section     1312  height_ctrl.o(.bss)
    .bss                                     0x20002ec0   Section      628  pos_ctrl.o(.bss)
    cnt                                      0x20003120   Data          20  pos_ctrl.o(.bss)
    .bss                                     0x20003134   Section     4168  usart.o(.bss)
    .bss                                     0x2000417c   Section      131  data_transfer.o(.bss)
    sel                                      0x200041c3   Data          10  data_transfer.o(.bss)
    RxBuffer                                 0x200041cd   Data          50  data_transfer.o(.bss)
    .bss                                     0x20004200   Section      240  rc.o(.bss)
    Mapped_CH                                0x200042e0   Data          16  rc.o(.bss)
    .bss                                     0x200042f0   Section      512  mpu6050.o(.bss)
    .bss                                     0x200044f0   Section      320  ak8975.o(.bss)
    InPut_IIR_hml                            0x200044f0   Data         120  ak8975.o(.bss)
    OutPut_IIR_hml                           0x20004568   Data         120  ak8975.o(.bss)
    MagSum                                   0x20004624   Data          12  ak8975.o(.bss)
    .bss                                     0x20004630   Section       60  bmp.o(.bss)
    PROM_C                                   0x20004660   Data          12  bmp.o(.bss)
    .bss                                     0x2000466c   Section      160  ultrasonic.o(.bss)
    sonar_values                             0x20004700   Data          12  ultrasonic.o(.bss)
    .bss                                     0x2000470c   Section      784  anotc_baro_ctrl.o(.bss)
    .bss                                     0x20004a1c   Section     2016  eso.o(.bss)
    .bss                                     0x200051fc   Section       96  libspace.o(.bss)
    HEAP                                     0x20005260   Section     1024  startup_stm32f4xx.o(HEAP)
    Heap_Mem                                 0x20005260   Data        1024  startup_stm32f4xx.o(HEAP)
    STACK                                    0x20005660   Section     2048  startup_stm32f4xx.o(STACK)
    Stack_Mem                                0x20005660   Data        2048  startup_stm32f4xx.o(STACK)
    __initial_sp                             0x20005e60   Data           0  startup_stm32f4xx.o(STACK)

    Global Symbols

    Symbol Name                              Value     Ov Type        Size  Object(Section)

    BuildAttributes$$THM_ISAv4$E$P$D$K$B$S$7EM$VFPi3$EXTD16$VFPS$VFMA$PE$A:L22UL41UL21$X:L11$S22US41US21$IEEE1$IW$USESV6$~STKCKD$USESV7$~SHL$OTIME$ROPI$IEEEX$EBA8$UX$STANDARDLIB$REQ8$PRES8$EABIv2 0x00000000   Number         0  anon$$obj.o ABSOLUTE
    __ARM_use_no_argv                        0x00000000   Number         0  main.o ABSOLUTE
    __ARM_exceptions_init                     - Undefined Weak Reference
    __alloca_initialize                       - Undefined Weak Reference
    __arm_preinit_                            - Undefined Weak Reference
    __cpp_initialize__aeabi_                  - Undefined Weak Reference
    __cxa_finalize                            - Undefined Weak Reference
    __rt_locale                               - Undefined Weak Reference
    __sigvec_lookup                           - Undefined Weak Reference
    _atexit_init                              - Undefined Weak Reference
    _call_atexit_fns                          - Undefined Weak Reference
    _clock_init                               - Undefined Weak Reference
    _fp_trap_init                             - Undefined Weak Reference
    _fp_trap_shutdown                         - Undefined Weak Reference
    _get_lc_collate                           - Undefined Weak Reference
    _get_lc_ctype                             - Undefined Weak Reference
    _get_lc_monetary                          - Undefined Weak Reference
    _get_lc_numeric                           - Undefined Weak Reference
    _get_lc_time                              - Undefined Weak Reference
    _getenv_init                              - Undefined Weak Reference
    _handle_redirection                       - Undefined Weak Reference
    _init_alloc                               - Undefined Weak Reference
    _init_user_alloc                          - Undefined Weak Reference
    _initio                                   - Undefined Weak Reference
    _rand_init                                - Undefined Weak Reference
    _signal_finish                            - Undefined Weak Reference
    _signal_init                              - Undefined Weak Reference
    _terminate_alloc                          - Undefined Weak Reference
    _terminate_user_alloc                     - Undefined Weak Reference
    _terminateio                              - Undefined Weak Reference
    __Vectors_Size                           0x00000188   Number         0  startup_stm32f4xx.o ABSOLUTE
    __Vectors                                0x08000000   Data           4  startup_stm32f4xx.o(RESET)
    __Vectors_End                            0x08000188   Data           0  startup_stm32f4xx.o(RESET)
    __main                                   0x08000189   Thumb Code     8  __main.o(!!!main)
    __scatterload                            0x08000191   Thumb Code     0  __scatter.o(!!!scatter)
    __scatterload_rt2                        0x08000191   Thumb Code    44  __scatter.o(!!!scatter)
    __scatterload_rt2_thumb_only             0x08000191   Thumb Code     0  __scatter.o(!!!scatter)
    __scatterload_null                       0x0800019f   Thumb Code     0  __scatter.o(!!!scatter)
    __decompress                             0x080001c5   Thumb Code    90  __dczerorl2.o(!!dczerorl2)
    __decompress1                            0x080001c5   Thumb Code     0  __dczerorl2.o(!!dczerorl2)
    __scatterload_zeroinit                   0x08000221   Thumb Code    28  __scatter_zi.o(!!handler_zi)
    __rt_lib_init                            0x0800023d   Thumb Code     0  libinit.o(.ARM.Collect$$libinit$$00000000)
    __rt_lib_init_fp_1                       0x0800023f   Thumb Code     0  libinit2.o(.ARM.Collect$$libinit$$00000001)
    __rt_lib_init_alloca_1                   0x08000243   Thumb Code     0  libinit2.o(.ARM.Collect$$libinit$$0000002E)
    __rt_lib_init_argv_1                     0x08000243   Thumb Code     0  libinit2.o(.ARM.Collect$$libinit$$0000002C)
    __rt_lib_init_atexit_1                   0x08000243   Thumb Code     0  libinit2.o(.ARM.Collect$$libinit$$0000001B)
    __rt_lib_init_clock_1                    0x08000243   Thumb Code     0  libinit2.o(.ARM.Collect$$libinit$$00000021)
    __rt_lib_init_cpp_1                      0x08000243   Thumb Code     0  libinit2.o(.ARM.Collect$$libinit$$00000032)
    __rt_lib_init_exceptions_1               0x08000243   Thumb Code     0  libinit2.o(.ARM.Collect$$libinit$$00000030)
    __rt_lib_init_fp_trap_1                  0x08000243   Thumb Code     0  libinit2.o(.ARM.Collect$$libinit$$0000001F)
    __rt_lib_init_getenv_1                   0x08000243   Thumb Code     0  libinit2.o(.ARM.Collect$$libinit$$00000023)
    __rt_lib_init_heap_1                     0x08000243   Thumb Code     0  libinit2.o(.ARM.Collect$$libinit$$0000000A)
    __rt_lib_init_lc_collate_1               0x08000243   Thumb Code     0  libinit2.o(.ARM.Collect$$libinit$$00000011)
    __rt_lib_init_lc_ctype_1                 0x08000243   Thumb Code     0  libinit2.o(.ARM.Collect$$libinit$$00000013)
    __rt_lib_init_lc_monetary_1              0x08000243   Thumb Code     0  libinit2.o(.ARM.Collect$$libinit$$00000015)
    __rt_lib_init_lc_numeric_1               0x08000243   Thumb Code     0  libinit2.o(.ARM.Collect$$libinit$$00000017)
    __rt_lib_init_lc_time_1                  0x08000243   Thumb Code     0  libinit2.o(.ARM.Collect$$libinit$$00000019)
    __rt_lib_init_preinit_1                  0x08000243   Thumb Code     0  libinit2.o(.ARM.Collect$$libinit$$00000004)
    __rt_lib_init_rand_1                     0x08000243   Thumb Code     0  libinit2.o(.ARM.Collect$$libinit$$0000000E)
    __rt_lib_init_return                     0x08000243   Thumb Code     0  libinit2.o(.ARM.Collect$$libinit$$00000033)
    __rt_lib_init_signal_1                   0x08000243   Thumb Code     0  libinit2.o(.ARM.Collect$$libinit$$0000001D)
    __rt_lib_init_stdio_1                    0x08000243   Thumb Code     0  libinit2.o(.ARM.Collect$$libinit$$00000025)
    __rt_lib_init_user_alloc_1               0x08000243   Thumb Code     0  libinit2.o(.ARM.Collect$$libinit$$0000000C)
    __rt_lib_shutdown                        0x08000245   Thumb Code     0  libshutdown.o(.ARM.Collect$$libshutdown$$00000000)
    __rt_lib_shutdown_cpp_1                  0x08000247   Thumb Code     0  libshutdown2.o(.ARM.Collect$$libshutdown$$00000002)
    __rt_lib_shutdown_fp_trap_1              0x08000247   Thumb Code     0  libshutdown2.o(.ARM.Collect$$libshutdown$$00000007)
    __rt_lib_shutdown_heap_1                 0x08000247   Thumb Code     0  libshutdown2.o(.ARM.Collect$$libshutdown$$0000000F)
    __rt_lib_shutdown_return                 0x08000247   Thumb Code     0  libshutdown2.o(.ARM.Collect$$libshutdown$$00000010)
    __rt_lib_shutdown_signal_1               0x08000247   Thumb Code     0  libshutdown2.o(.ARM.Collect$$libshutdown$$0000000A)
    __rt_lib_shutdown_stdio_1                0x08000247   Thumb Code     0  libshutdown2.o(.ARM.Collect$$libshutdown$$00000004)
    __rt_lib_shutdown_user_alloc_1           0x08000247   Thumb Code     0  libshutdown2.o(.ARM.Collect$$libshutdown$$0000000C)
    __rt_entry                               0x08000249   Thumb Code     0  __rtentry.o(.ARM.Collect$$rtentry$$00000000)
    __rt_entry_presh_1                       0x08000249   Thumb Code     0  __rtentry2.o(.ARM.Collect$$rtentry$$00000002)
    __rt_entry_sh                            0x08000249   Thumb Code     0  __rtentry4.o(.ARM.Collect$$rtentry$$00000004)
    __rt_entry_li                            0x0800024f   Thumb Code     0  __rtentry2.o(.ARM.Collect$$rtentry$$0000000A)
    __rt_entry_postsh_1                      0x0800024f   Thumb Code     0  __rtentry2.o(.ARM.Collect$$rtentry$$00000009)
    __rt_entry_main                          0x08000253   Thumb Code     0  __rtentry2.o(.ARM.Collect$$rtentry$$0000000D)
    __rt_entry_postli_1                      0x08000253   Thumb Code     0  __rtentry2.o(.ARM.Collect$$rtentry$$0000000C)
    __rt_exit                                0x0800025b   Thumb Code     0  rtexit.o(.ARM.Collect$$rtexit$$00000000)
    __rt_exit_ls                             0x0800025d   Thumb Code     0  rtexit2.o(.ARM.Collect$$rtexit$$00000003)
    __rt_exit_prels_1                        0x0800025d   Thumb Code     0  rtexit2.o(.ARM.Collect$$rtexit$$00000002)
    __rt_exit_exit                           0x08000261   Thumb Code     0  rtexit2.o(.ARM.Collect$$rtexit$$00000004)
    Loop_check                               0x08000269   Thumb Code    86  scheduler.o(.text)
    Duty_1ms                                 0x080002bf   Thumb Code     2  scheduler.o(.text)
    Duty_2ms                                 0x080002c1   Thumb Code   324  scheduler.o(.text)
    Duty_5ms                                 0x08000405   Thumb Code   112  scheduler.o(.text)
    Duty_10ms                                0x08000475   Thumb Code  3346  scheduler.o(.text)
    Duty_20ms                                0x08001187   Thumb Code   818  scheduler.o(.text)
    Duty_50ms                                0x080014b9   Thumb Code   612  scheduler.o(.text)
    Duty_Loop                                0x0800171d   Thumb Code   132  scheduler.o(.text)
    cpuidGetId                               0x0800183d   Thumb Code    26  init.o(.text)
    All_Init                                 0x08001857   Thumb Code   236  init.o(.text)
    PID_Para_Init                            0x08001a2b   Thumb Code     8  parameter.o(.text)
    Para_ResetToFactorySetup                 0x08001a33   Thumb Code   770  parameter.o(.text)
    Para_Init                                0x08001d35   Thumb Code    22  parameter.o(.text)
    Param_SaveAccelOffset                    0x08001d4b   Thumb Code   148  parameter.o(.text)
    Param_SaveGyroOffset                     0x08001ddf   Thumb Code    42  parameter.o(.text)
    Param_SaveMagOffset                      0x08001e09   Thumb Code    30  parameter.o(.text)
    Param_Save_3d_offset                     0x08001e27   Thumb Code    30  parameter.o(.text)
    Param_SavePID                            0x08001e45   Thumb Code   124  parameter.o(.text)
    Parameter_Save                           0x08001ec1   Thumb Code     2  parameter.o(.text)
    mode_check                               0x08001edd   Thumb Code   204  fly_mode.o(.text)
    main                                     0x08001fc5   Thumb Code    16  main.o(.text)
    NMI_Handler                              0x08001fd9   Thumb Code     2  stm32f4xx_it.o(.text)
    MemManage_Handler                        0x08001fdb   Thumb Code     4  stm32f4xx_it.o(.text)
    BusFault_Handler                         0x08001fdf   Thumb Code     4  stm32f4xx_it.o(.text)
    UsageFault_Handler                       0x08001fe3   Thumb Code     4  stm32f4xx_it.o(.text)
    SVC_Handler                              0x08001fe7   Thumb Code     2  stm32f4xx_it.o(.text)
    DebugMon_Handler                         0x08001fe9   Thumb Code     2  stm32f4xx_it.o(.text)
    SysTick_Handler                          0x08001feb   Thumb Code    18  stm32f4xx_it.o(.text)
    TIM3_IRQHandler                          0x08001ffd   Thumb Code     2  stm32f4xx_it.o(.text)
    TIM4_IRQHandler                          0x08001fff   Thumb Code     2  stm32f4xx_it.o(.text)
    MOTOR_SET                                0x08002005   Thumb Code    96  pwm_out.o(.text)
    PWM_Out_Init                             0x08002065   Thumb Code   648  pwm_out.o(.text)
    CH_out_Mapping_Fun                       0x080022ed   Thumb Code    28  pwm_out.o(.text)
    SetPwm                                   0x08002309   Thumb Code   170  pwm_out.o(.text)
    IIC_Init                                 0x080023d1   Thumb Code    60  iic_hml.o(.text)
    IIC_Start                                0x0800240d   Thumb Code    68  iic_hml.o(.text)
    IIC_Stop                                 0x08002451   Thumb Code    62  iic_hml.o(.text)
    IIC_Wait_Ack                             0x0800248f   Thumb Code    88  iic_hml.o(.text)
    IIC_Ack                                  0x080024e7   Thumb Code    66  iic_hml.o(.text)
    IIC_NAck                                 0x08002529   Thumb Code    66  iic_hml.o(.text)
    IIC_Send_Byte                            0x0800256b   Thumb Code    90  iic_hml.o(.text)
    IIC_Read_Byte                            0x080025c5   Thumb Code    94  iic_hml.o(.text)
    I2C_ReadOneByte                          0x08002623   Thumb Code    70  iic_hml.o(.text)
    IICreadBytes                             0x08002669   Thumb Code   100  iic_hml.o(.text)
    IICwriteBytes                            0x080026cd   Thumb Code    70  iic_hml.o(.text)
    IICreadByte                              0x08002713   Thumb Code    22  iic_hml.o(.text)
    IICwriteByte                             0x08002729   Thumb Code    20  iic_hml.o(.text)
    IICwriteBitsm                            0x0800273d   Thumb Code   106  iic_hml.o(.text)
    IICwriteBitm                             0x080027a7   Thumb Code    78  iic_hml.o(.text)
    I2c_Soft_delay                           0x080027f5   Thumb Code    42  i2c_soft.o(.text)
    I2c_Soft_Init                            0x0800281f   Thumb Code    46  i2c_soft.o(.text)
    I2c_Soft_Start                           0x0800284d   Thumb Code    86  i2c_soft.o(.text)
    I2c_Soft_Stop                            0x080028a3   Thumb Code    52  i2c_soft.o(.text)
    I2c_Soft_Ask                             0x080028d7   Thumb Code    52  i2c_soft.o(.text)
    I2c_Soft_NoAsk                           0x0800290b   Thumb Code    52  i2c_soft.o(.text)
    I2c_Soft_WaitAsk                         0x0800293f   Thumb Code    88  i2c_soft.o(.text)
    I2c_Soft_SendByte                        0x08002997   Thumb Code    84  i2c_soft.o(.text)
    I2c_Soft_ReadByte                        0x080029eb   Thumb Code    96  i2c_soft.o(.text)
    IIC_Write_1Byte                          0x08002a4b   Thumb Code    62  i2c_soft.o(.text)
    IIC_Read_1Byte                           0x08002a89   Thumb Code    80  i2c_soft.o(.text)
    IIC_Write_nByte                          0x08002ad9   Thumb Code    78  i2c_soft.o(.text)
    IIC_Read_nByte                           0x08002b27   Thumb Code   108  i2c_soft.o(.text)
    LEDRGB                                   0x08002b9d   Thumb Code    40  led.o(.text)
    LED_Init                                 0x08002bc5   Thumb Code    58  led.o(.text)
    SPI1_ReadWriteByte                       0x08002c09   Thumb Code    50  flash.o(.text)
    W25QXX_ReadID                            0x08002c3b   Thumb Code    64  flash.o(.text)
    SPI1_SetSpeed                            0x08002c7b   Thumb Code    36  flash.o(.text)
    SPI1_Init                                0x08002c9f   Thumb Code   188  flash.o(.text)
    W25QXX_Init                              0x08002d5b   Thumb Code    74  flash.o(.text)
    W25QXX_ReadSR                            0x08002da5   Thumb Code    36  flash.o(.text)
    W25QXX_Write_SR                          0x08002dc9   Thumb Code    32  flash.o(.text)
    W25QXX_Write_Enable                      0x08002de9   Thumb Code    24  flash.o(.text)
    W25QXX_Write_Disable                     0x08002e01   Thumb Code    24  flash.o(.text)
    W25QXX_Read                              0x08002e19   Thumb Code    74  flash.o(.text)
    W25QXX_Wait_Busy                         0x08002e63   Thumb Code    18  flash.o(.text)
    W25QXX_Write_Page                        0x08002e75   Thumb Code    80  flash.o(.text)
    W25QXX_Write_NoCheck                     0x08002ec5   Thumb Code    70  flash.o(.text)
    W25QXX_Erase_Sector                      0x08002f0b   Thumb Code    62  flash.o(.text)
    W25QXX_Write                             0x08002f49   Thumb Code   206  flash.o(.text)
    W25QXX_Erase_Chip                        0x08003017   Thumb Code    36  flash.o(.text)
    W25QXX_PowerDown                         0x0800303b   Thumb Code    24  flash.o(.text)
    W25QXX_WAKEUP                            0x08003053   Thumb Code    24  flash.o(.text)
    STMFLASH_ReadWord                        0x0800306b   Thumb Code     6  flash.o(.text)
    STMFLASH_GetFlashSector                  0x08003071   Thumb Code   116  flash.o(.text)
    STMFLASH_Write                           0x080030e5   Thumb Code   146  flash.o(.text)
    STMFLASH_Read                            0x08003177   Thumb Code    32  flash.o(.text)
    READ_PARM                                0x08003197   Thumb Code   896  flash.o(.text)
    WRITE_PARM                               0x08003517   Thumb Code   922  flash.o(.text)
    TIM_CONF                                 0x080038b1   Thumb Code    86  time.o(.text)
    TIM_NVIC                                 0x08003907   Thumb Code    34  time.o(.text)
    TIM_INIT                                 0x08003929   Thumb Code    20  time.o(.text)
    SysTick_Configuration                    0x0800393d   Thumb Code   100  time.o(.text)
    GetSysTime_us                            0x080039a1   Thumb Code    48  time.o(.text)
    Delay_us                                 0x080039d1   Thumb Code    24  time.o(.text)
    Delay_ms                                 0x080039e9   Thumb Code    24  time.o(.text)
    sys_time                                 0x08003a01   Thumb Code   126  time.o(.text)
    Get_Cycle_T                              0x08003a7f   Thumb Code   118  time.o(.text)
    Cycle_Time_Init                          0x08003af5   Thumb Code    22  time.o(.text)
    SPI2_ReadWriteByte                       0x08003b31   Thumb Code    78  spi.o(.text)
    SPI2_Init                                0x08003b7f   Thumb Code   220  spi.o(.text)
    SPI2_SetSpeed                            0x08003c5b   Thumb Code    36  spi.o(.text)
    SPI2_ReadByte                            0x08003c7f   Thumb Code    42  spi.o(.text)
    SPI2_IRQHandler                          0x08003ca9   Thumb Code    56  spi.o(.text)
    NVIC_PriorityGroupConfig                 0x08003cf5   Thumb Code    10  misc.o(.text)
    NVIC_Init                                0x08003cff   Thumb Code   106  misc.o(.text)
    NVIC_SetVectorTable                      0x08003d69   Thumb Code    14  misc.o(.text)
    NVIC_SystemLPConfig                      0x08003d77   Thumb Code    34  misc.o(.text)
    SysTick_CLKSourceConfig                  0x08003d99   Thumb Code    40  misc.o(.text)
    DMA_DeInit                               0x08003dd5   Thumb Code   324  stm32f4xx_dma.o(.text)
    DMA_Init                                 0x08003f19   Thumb Code    82  stm32f4xx_dma.o(.text)
    DMA_StructInit                           0x08003f6b   Thumb Code    34  stm32f4xx_dma.o(.text)
    DMA_Cmd                                  0x08003f8d   Thumb Code    22  stm32f4xx_dma.o(.text)
    DMA_PeriphIncOffsetSizeConfig            0x08003fa3   Thumb Code    22  stm32f4xx_dma.o(.text)
    DMA_FlowControllerConfig                 0x08003fb9   Thumb Code    22  stm32f4xx_dma.o(.text)
    DMA_SetCurrDataCounter                   0x08003fcf   Thumb Code     4  stm32f4xx_dma.o(.text)
    DMA_GetCurrDataCounter                   0x08003fd3   Thumb Code     8  stm32f4xx_dma.o(.text)
    DMA_DoubleBufferModeConfig               0x08003fdb   Thumb Code    24  stm32f4xx_dma.o(.text)
    DMA_DoubleBufferModeCmd                  0x08003ff3   Thumb Code    22  stm32f4xx_dma.o(.text)
    DMA_MemoryTargetConfig                   0x08004009   Thumb Code    10  stm32f4xx_dma.o(.text)
    DMA_GetCurrentMemoryTarget               0x08004013   Thumb Code    20  stm32f4xx_dma.o(.text)
    DMA_GetCmdStatus                         0x08004027   Thumb Code    20  stm32f4xx_dma.o(.text)
    DMA_GetFIFOStatus                        0x0800403b   Thumb Code    12  stm32f4xx_dma.o(.text)
    DMA_GetFlagStatus                        0x08004047   Thumb Code    56  stm32f4xx_dma.o(.text)
    DMA_ClearFlag                            0x0800407f   Thumb Code    40  stm32f4xx_dma.o(.text)
    DMA_ITConfig                             0x080040a7   Thumb Code    58  stm32f4xx_dma.o(.text)
    DMA_GetITStatus                          0x080040e1   Thumb Code    84  stm32f4xx_dma.o(.text)
    DMA_ClearITPendingBit                    0x08004135   Thumb Code    40  stm32f4xx_dma.o(.text)
    FLASH_SetLatency                         0x0800417d   Thumb Code     6  stm32f4xx_flash.o(.text)
    FLASH_PrefetchBufferCmd                  0x08004183   Thumb Code    30  stm32f4xx_flash.o(.text)
    FLASH_InstructionCacheCmd                0x080041a1   Thumb Code    30  stm32f4xx_flash.o(.text)
    FLASH_DataCacheCmd                       0x080041bf   Thumb Code    30  stm32f4xx_flash.o(.text)
    FLASH_InstructionCacheReset              0x080041dd   Thumb Code    14  stm32f4xx_flash.o(.text)
    FLASH_DataCacheReset                     0x080041eb   Thumb Code    14  stm32f4xx_flash.o(.text)
    FLASH_Unlock                             0x080041f9   Thumb Code    26  stm32f4xx_flash.o(.text)
    FLASH_Lock                               0x08004213   Thumb Code    18  stm32f4xx_flash.o(.text)
    FLASH_GetStatus                          0x08004225   Thumb Code    74  stm32f4xx_flash.o(.text)
    FLASH_WaitForLastOperation               0x0800426f   Thumb Code    34  stm32f4xx_flash.o(.text)
    FLASH_EraseSector                        0x08004291   Thumb Code   140  stm32f4xx_flash.o(.text)
    FLASH_EraseAllSectors                    0x0800431d   Thumb Code   112  stm32f4xx_flash.o(.text)
    FLASH_ProgramDoubleWord                  0x0800438d   Thumb Code    86  stm32f4xx_flash.o(.text)
    FLASH_ProgramWord                        0x080043e3   Thumb Code    82  stm32f4xx_flash.o(.text)
    FLASH_ProgramHalfWord                    0x08004435   Thumb Code    82  stm32f4xx_flash.o(.text)
    FLASH_ProgramByte                        0x08004487   Thumb Code    78  stm32f4xx_flash.o(.text)
    FLASH_OB_Unlock                          0x080044d5   Thumb Code    26  stm32f4xx_flash.o(.text)
    FLASH_OB_Lock                            0x080044ef   Thumb Code    18  stm32f4xx_flash.o(.text)
    FLASH_OB_WRPConfig                       0x08004501   Thumb Code    54  stm32f4xx_flash.o(.text)
    FLASH_OB_RDPConfig                       0x08004537   Thumb Code    24  stm32f4xx_flash.o(.text)
    FLASH_OB_UserConfig                      0x0800454f   Thumb Code    68  stm32f4xx_flash.o(.text)
    FLASH_OB_BORConfig                       0x08004593   Thumb Code    22  stm32f4xx_flash.o(.text)
    FLASH_OB_Launch                          0x080045a9   Thumb Code    26  stm32f4xx_flash.o(.text)
    FLASH_OB_GetUser                         0x080045c3   Thumb Code    10  stm32f4xx_flash.o(.text)
    FLASH_OB_GetWRP                          0x080045cd   Thumb Code     8  stm32f4xx_flash.o(.text)
    FLASH_OB_GetRDP                          0x080045d5   Thumb Code    20  stm32f4xx_flash.o(.text)
    FLASH_OB_GetBOR                          0x080045e9   Thumb Code    10  stm32f4xx_flash.o(.text)
    FLASH_ITConfig                           0x080045f3   Thumb Code    34  stm32f4xx_flash.o(.text)
    FLASH_GetFlagStatus                      0x08004615   Thumb Code    22  stm32f4xx_flash.o(.text)
    FLASH_ClearFlag                          0x0800462b   Thumb Code     8  stm32f4xx_flash.o(.text)
    GPIO_DeInit                              0x08004639   Thumb Code   220  stm32f4xx_gpio.o(.text)
    GPIO_Init                                0x08004715   Thumb Code   144  stm32f4xx_gpio.o(.text)
    GPIO_StructInit                          0x080047a5   Thumb Code    18  stm32f4xx_gpio.o(.text)
    GPIO_PinLockConfig                       0x080047b7   Thumb Code    34  stm32f4xx_gpio.o(.text)
    GPIO_ReadInputDataBit                    0x080047d9   Thumb Code    18  stm32f4xx_gpio.o(.text)
    GPIO_ReadInputData                       0x080047eb   Thumb Code     8  stm32f4xx_gpio.o(.text)
    GPIO_ReadOutputDataBit                   0x080047f3   Thumb Code    18  stm32f4xx_gpio.o(.text)
    GPIO_ReadOutputData                      0x08004805   Thumb Code     8  stm32f4xx_gpio.o(.text)
    GPIO_SetBits                             0x0800480d   Thumb Code     4  stm32f4xx_gpio.o(.text)
    GPIO_ResetBits                           0x08004811   Thumb Code     4  stm32f4xx_gpio.o(.text)
    GPIO_WriteBit                            0x08004815   Thumb Code    10  stm32f4xx_gpio.o(.text)
    GPIO_Write                               0x0800481f   Thumb Code     4  stm32f4xx_gpio.o(.text)
    GPIO_ToggleBits                          0x08004823   Thumb Code     8  stm32f4xx_gpio.o(.text)
    GPIO_PinAFConfig                         0x0800482b   Thumb Code    70  stm32f4xx_gpio.o(.text)
    RCC_DeInit                               0x08004895   Thumb Code    60  stm32f4xx_rcc.o(.text)
    RCC_HSEConfig                            0x080048d1   Thumb Code    14  stm32f4xx_rcc.o(.text)
    RCC_GetFlagStatus                        0x080048df   Thumb Code    60  stm32f4xx_rcc.o(.text)
    RCC_WaitForHSEStartUp                    0x0800491b   Thumb Code    56  stm32f4xx_rcc.o(.text)
    RCC_AdjustHSICalibrationValue            0x08004953   Thumb Code    20  stm32f4xx_rcc.o(.text)
    RCC_HSICmd                               0x08004967   Thumb Code     6  stm32f4xx_rcc.o(.text)
    RCC_LSEConfig                            0x0800496d   Thumb Code    46  stm32f4xx_rcc.o(.text)
    RCC_LSICmd                               0x0800499b   Thumb Code     6  stm32f4xx_rcc.o(.text)
    RCC_PLLConfig                            0x080049a1   Thumb Code    32  stm32f4xx_rcc.o(.text)
    RCC_PLLCmd                               0x080049c1   Thumb Code     6  stm32f4xx_rcc.o(.text)
    RCC_PLLI2SConfig                         0x080049c7   Thumb Code    14  stm32f4xx_rcc.o(.text)
    RCC_PLLI2SCmd                            0x080049d5   Thumb Code     6  stm32f4xx_rcc.o(.text)
    RCC_ClockSecuritySystemCmd               0x080049db   Thumb Code     6  stm32f4xx_rcc.o(.text)
    RCC_MCO1Config                           0x080049e1   Thumb Code    28  stm32f4xx_rcc.o(.text)
    RCC_MCO2Config                           0x080049fd   Thumb Code    28  stm32f4xx_rcc.o(.text)
    RCC_SYSCLKConfig                         0x08004a19   Thumb Code    20  stm32f4xx_rcc.o(.text)
    RCC_GetSYSCLKSource                      0x08004a2d   Thumb Code    12  stm32f4xx_rcc.o(.text)
    RCC_HCLKConfig                           0x08004a39   Thumb Code    20  stm32f4xx_rcc.o(.text)
    RCC_PCLK1Config                          0x08004a4d   Thumb Code    20  stm32f4xx_rcc.o(.text)
    RCC_PCLK2Config                          0x08004a61   Thumb Code    22  stm32f4xx_rcc.o(.text)
    RCC_GetClocksFreq                        0x08004a77   Thumb Code   222  stm32f4xx_rcc.o(.text)
    RCC_RTCCLKConfig                         0x08004b55   Thumb Code    54  stm32f4xx_rcc.o(.text)
    RCC_RTCCLKCmd                            0x08004b8b   Thumb Code     8  stm32f4xx_rcc.o(.text)
    RCC_BackupResetCmd                       0x08004b93   Thumb Code     8  stm32f4xx_rcc.o(.text)
    RCC_I2SCLKConfig                         0x08004b9b   Thumb Code     6  stm32f4xx_rcc.o(.text)
    RCC_AHB1PeriphClockCmd                   0x08004ba1   Thumb Code    34  stm32f4xx_rcc.o(.text)
    RCC_AHB2PeriphClockCmd                   0x08004bc3   Thumb Code    34  stm32f4xx_rcc.o(.text)
    RCC_AHB3PeriphClockCmd                   0x08004be5   Thumb Code    34  stm32f4xx_rcc.o(.text)
    RCC_APB1PeriphClockCmd                   0x08004c07   Thumb Code    34  stm32f4xx_rcc.o(.text)
    RCC_APB2PeriphClockCmd                   0x08004c29   Thumb Code    34  stm32f4xx_rcc.o(.text)
    RCC_AHB1PeriphResetCmd                   0x08004c4b   Thumb Code    34  stm32f4xx_rcc.o(.text)
    RCC_AHB2PeriphResetCmd                   0x08004c6d   Thumb Code    72  stm32f4xx_rcc.o(.text)
    RCC_AHB3PeriphResetCmd                   0x08004cb5   Thumb Code    34  stm32f4xx_rcc.o(.text)
    RCC_APB1PeriphResetCmd                   0x08004cd7   Thumb Code    34  stm32f4xx_rcc.o(.text)
    RCC_APB2PeriphResetCmd                   0x08004cf9   Thumb Code    34  stm32f4xx_rcc.o(.text)
    RCC_AHB1PeriphClockLPModeCmd             0x08004d1b   Thumb Code    34  stm32f4xx_rcc.o(.text)
    RCC_AHB2PeriphClockLPModeCmd             0x08004d3d   Thumb Code    34  stm32f4xx_rcc.o(.text)
    RCC_AHB3PeriphClockLPModeCmd             0x08004d5f   Thumb Code    34  stm32f4xx_rcc.o(.text)
    RCC_APB1PeriphClockLPModeCmd             0x08004d81   Thumb Code    34  stm32f4xx_rcc.o(.text)
    RCC_APB2PeriphClockLPModeCmd             0x08004da3   Thumb Code    34  stm32f4xx_rcc.o(.text)
    RCC_ITConfig                             0x08004dc5   Thumb Code    34  stm32f4xx_rcc.o(.text)
    RCC_ClearFlag                            0x08004de7   Thumb Code    18  stm32f4xx_rcc.o(.text)
    RCC_GetITStatus                          0x08004df9   Thumb Code    22  stm32f4xx_rcc.o(.text)
    RCC_ClearITPendingBit                    0x08004e0f   Thumb Code     8  stm32f4xx_rcc.o(.text)
    SPI_I2S_DeInit                           0x08004e1d   Thumb Code    76  stm32f4xx_spi.o(.text)
    SPI_Init                                 0x08004e69   Thumb Code    60  stm32f4xx_spi.o(.text)
    I2S_Init                                 0x08004ea5   Thumb Code   350  stm32f4xx_spi.o(.text)
    SPI_StructInit                           0x08005003   Thumb Code    24  stm32f4xx_spi.o(.text)
    I2S_StructInit                           0x0800501b   Thumb Code    20  stm32f4xx_spi.o(.text)
    SPI_Cmd                                  0x0800502f   Thumb Code    24  stm32f4xx_spi.o(.text)
    I2S_Cmd                                  0x08005047   Thumb Code    24  stm32f4xx_spi.o(.text)
    SPI_DataSizeConfig                       0x0800505f   Thumb Code    18  stm32f4xx_spi.o(.text)
    SPI_BiDirectionalLineConfig              0x08005071   Thumb Code    28  stm32f4xx_spi.o(.text)
    SPI_NSSInternalSoftwareConfig            0x0800508d   Thumb Code    30  stm32f4xx_spi.o(.text)
    SPI_SSOutputCmd                          0x080050ab   Thumb Code    24  stm32f4xx_spi.o(.text)
    SPI_TIModeCmd                            0x080050c3   Thumb Code    24  stm32f4xx_spi.o(.text)
    I2S_FullDuplexConfig                     0x080050db   Thumb Code    80  stm32f4xx_spi.o(.text)
    SPI_I2S_ReceiveData                      0x0800512b   Thumb Code     6  stm32f4xx_spi.o(.text)
    SPI_I2S_SendData                         0x08005131   Thumb Code     4  stm32f4xx_spi.o(.text)
    SPI_CalculateCRC                         0x08005135   Thumb Code    24  stm32f4xx_spi.o(.text)
    SPI_TransmitCRC                          0x0800514d   Thumb Code    10  stm32f4xx_spi.o(.text)
    SPI_GetCRC                               0x08005157   Thumb Code    16  stm32f4xx_spi.o(.text)
    SPI_GetCRCPolynomial                     0x08005167   Thumb Code     6  stm32f4xx_spi.o(.text)
    SPI_I2S_DMACmd                           0x0800516d   Thumb Code    18  stm32f4xx_spi.o(.text)
    SPI_I2S_ITConfig                         0x0800517f   Thumb Code    32  stm32f4xx_spi.o(.text)
    SPI_I2S_GetFlagStatus                    0x0800519f   Thumb Code    18  stm32f4xx_spi.o(.text)
    SPI_I2S_ClearFlag                        0x080051b1   Thumb Code     6  stm32f4xx_spi.o(.text)
    SPI_I2S_GetITStatus                      0x080051b7   Thumb Code    52  stm32f4xx_spi.o(.text)
    SPI_I2S_ClearITPendingBit                0x080051eb   Thumb Code    42  stm32f4xx_spi.o(.text)
    TIM_DeInit                               0x08005215   Thumb Code   346  stm32f4xx_tim.o(.text)
    TIM_TimeBaseInit                         0x0800536f   Thumb Code   104  stm32f4xx_tim.o(.text)
    TIM_TimeBaseStructInit                   0x080053d7   Thumb Code    18  stm32f4xx_tim.o(.text)
    TIM_PrescalerConfig                      0x080053e9   Thumb Code     6  stm32f4xx_tim.o(.text)
    TIM_CounterModeConfig                    0x080053ef   Thumb Code    18  stm32f4xx_tim.o(.text)
    TIM_SetCounter                           0x08005401   Thumb Code     4  stm32f4xx_tim.o(.text)
    TIM_SetAutoreload                        0x08005405   Thumb Code     4  stm32f4xx_tim.o(.text)
    TIM_GetCounter                           0x08005409   Thumb Code     6  stm32f4xx_tim.o(.text)
    TIM_GetPrescaler                         0x0800540f   Thumb Code     6  stm32f4xx_tim.o(.text)
    TIM_UpdateDisableConfig                  0x08005415   Thumb Code    24  stm32f4xx_tim.o(.text)
    TIM_UpdateRequestConfig                  0x0800542d   Thumb Code    24  stm32f4xx_tim.o(.text)
    TIM_ARRPreloadConfig                     0x08005445   Thumb Code    24  stm32f4xx_tim.o(.text)
    TIM_SelectOnePulseMode                   0x0800545d   Thumb Code    18  stm32f4xx_tim.o(.text)
    TIM_SetClockDivision                     0x0800546f   Thumb Code    18  stm32f4xx_tim.o(.text)
    TIM_Cmd                                  0x08005481   Thumb Code    24  stm32f4xx_tim.o(.text)
    TIM_OC1Init                              0x08005499   Thumb Code   114  stm32f4xx_tim.o(.text)
    TIM_OC2Init                              0x0800550b   Thumb Code   154  stm32f4xx_tim.o(.text)
    TIM_OC3Init                              0x080055a5   Thumb Code   204  stm32f4xx_tim.o(.text)
    TIM_OC4Init                              0x08005671   Thumb Code   112  stm32f4xx_tim.o(.text)
    TIM_OCStructInit                         0x080056e1   Thumb Code    20  stm32f4xx_tim.o(.text)
    TIM_SelectOCxM                           0x080056f5   Thumb Code    86  stm32f4xx_tim.o(.text)
    TIM_SetCompare1                          0x0800574b   Thumb Code     4  stm32f4xx_tim.o(.text)
    TIM_SetCompare2                          0x0800574f   Thumb Code     4  stm32f4xx_tim.o(.text)
    TIM_SetCompare3                          0x08005753   Thumb Code     4  stm32f4xx_tim.o(.text)
    TIM_SetCompare4                          0x08005757   Thumb Code     4  stm32f4xx_tim.o(.text)
    TIM_ForcedOC1Config                      0x0800575b   Thumb Code    18  stm32f4xx_tim.o(.text)
    TIM_ForcedOC2Config                      0x0800576d   Thumb Code    26  stm32f4xx_tim.o(.text)
    TIM_ForcedOC3Config                      0x08005787   Thumb Code    18  stm32f4xx_tim.o(.text)
    TIM_ForcedOC4Config                      0x08005799   Thumb Code    26  stm32f4xx_tim.o(.text)
    TIM_OC1PreloadConfig                     0x080057b3   Thumb Code    18  stm32f4xx_tim.o(.text)
    TIM_OC2PreloadConfig                     0x080057c5   Thumb Code    26  stm32f4xx_tim.o(.text)
    TIM_OC3PreloadConfig                     0x080057df   Thumb Code    18  stm32f4xx_tim.o(.text)
    TIM_OC4PreloadConfig                     0x080057f1   Thumb Code    26  stm32f4xx_tim.o(.text)
    TIM_OC1FastConfig                        0x0800580b   Thumb Code    18  stm32f4xx_tim.o(.text)
    TIM_OC2FastConfig                        0x0800581d   Thumb Code    26  stm32f4xx_tim.o(.text)
    TIM_OC3FastConfig                        0x08005837   Thumb Code    18  stm32f4xx_tim.o(.text)
    TIM_OC4FastConfig                        0x08005849   Thumb Code    26  stm32f4xx_tim.o(.text)
    TIM_ClearOC1Ref                          0x08005863   Thumb Code    18  stm32f4xx_tim.o(.text)
    TIM_ClearOC2Ref                          0x08005875   Thumb Code    24  stm32f4xx_tim.o(.text)
    TIM_ClearOC3Ref                          0x0800588d   Thumb Code    18  stm32f4xx_tim.o(.text)
    TIM_ClearOC4Ref                          0x0800589f   Thumb Code    24  stm32f4xx_tim.o(.text)
    TIM_OC1PolarityConfig                    0x080058b7   Thumb Code    18  stm32f4xx_tim.o(.text)
    TIM_OC1NPolarityConfig                   0x080058c9   Thumb Code    18  stm32f4xx_tim.o(.text)
    TIM_OC2PolarityConfig                    0x080058db   Thumb Code    26  stm32f4xx_tim.o(.text)
    TIM_OC2NPolarityConfig                   0x080058f5   Thumb Code    26  stm32f4xx_tim.o(.text)
    TIM_OC3PolarityConfig                    0x0800590f   Thumb Code    26  stm32f4xx_tim.o(.text)
    TIM_OC3NPolarityConfig                   0x08005929   Thumb Code    26  stm32f4xx_tim.o(.text)
    TIM_OC4PolarityConfig                    0x08005943   Thumb Code    26  stm32f4xx_tim.o(.text)
    TIM_CCxCmd                               0x0800595d   Thumb Code    30  stm32f4xx_tim.o(.text)
    TIM_CCxNCmd                              0x0800597b   Thumb Code    30  stm32f4xx_tim.o(.text)
    TIM_SetIC4Prescaler                      0x08005999   Thumb Code    26  stm32f4xx_tim.o(.text)
    TIM_SetIC3Prescaler                      0x08005a03   Thumb Code    18  stm32f4xx_tim.o(.text)
    TIM_SetIC2Prescaler                      0x08005a5d   Thumb Code    26  stm32f4xx_tim.o(.text)
    TIM_SetIC1Prescaler                      0x08005ad1   Thumb Code    18  stm32f4xx_tim.o(.text)
    TIM_ICInit                               0x08005b1d   Thumb Code   110  stm32f4xx_tim.o(.text)
    TIM_ICStructInit                         0x08005b8b   Thumb Code    18  stm32f4xx_tim.o(.text)
    TIM_PWMIConfig                           0x08005b9d   Thumb Code   124  stm32f4xx_tim.o(.text)
    TIM_GetCapture1                          0x08005c19   Thumb Code     6  stm32f4xx_tim.o(.text)
    TIM_GetCapture2                          0x08005c1f   Thumb Code     6  stm32f4xx_tim.o(.text)
    TIM_GetCapture3                          0x08005c25   Thumb Code     6  stm32f4xx_tim.o(.text)
    TIM_GetCapture4                          0x08005c2b   Thumb Code     6  stm32f4xx_tim.o(.text)
    TIM_BDTRConfig                           0x08005c31   Thumb Code    32  stm32f4xx_tim.o(.text)
    TIM_BDTRStructInit                       0x08005c51   Thumb Code    18  stm32f4xx_tim.o(.text)
    TIM_CtrlPWMOutputs                       0x08005c63   Thumb Code    30  stm32f4xx_tim.o(.text)
    TIM_SelectCOM                            0x08005c81   Thumb Code    24  stm32f4xx_tim.o(.text)
    TIM_CCPreloadControl                     0x08005c99   Thumb Code    24  stm32f4xx_tim.o(.text)
    TIM_ITConfig                             0x08005cb1   Thumb Code    18  stm32f4xx_tim.o(.text)
    TIM_GenerateEvent                        0x08005cc3   Thumb Code     4  stm32f4xx_tim.o(.text)
    TIM_GetFlagStatus                        0x08005cc7   Thumb Code    18  stm32f4xx_tim.o(.text)
    TIM_ClearFlag                            0x08005cd9   Thumb Code     6  stm32f4xx_tim.o(.text)
    TIM_GetITStatus                          0x08005cdf   Thumb Code    34  stm32f4xx_tim.o(.text)
    TIM_ClearITPendingBit                    0x08005d01   Thumb Code     6  stm32f4xx_tim.o(.text)
    TIM_DMAConfig                            0x08005d07   Thumb Code    10  stm32f4xx_tim.o(.text)
    TIM_DMACmd                               0x08005d11   Thumb Code    18  stm32f4xx_tim.o(.text)
    TIM_SelectCCDMA                          0x08005d23   Thumb Code    24  stm32f4xx_tim.o(.text)
    TIM_InternalClockConfig                  0x08005d3b   Thumb Code    12  stm32f4xx_tim.o(.text)
    TIM_SelectInputTrigger                   0x08005d47   Thumb Code    18  stm32f4xx_tim.o(.text)
    TIM_ITRxExternalClockConfig              0x08005d59   Thumb Code    24  stm32f4xx_tim.o(.text)
    TIM_TIxExternalClockConfig               0x08005d71   Thumb Code    62  stm32f4xx_tim.o(.text)
    TIM_ETRConfig                            0x08005daf   Thumb Code    28  stm32f4xx_tim.o(.text)
    TIM_ETRClockMode1Config                  0x08005dcb   Thumb Code    54  stm32f4xx_tim.o(.text)
    TIM_ETRClockMode2Config                  0x08005e01   Thumb Code    32  stm32f4xx_tim.o(.text)
    TIM_SelectOutputTrigger                  0x08005e21   Thumb Code    18  stm32f4xx_tim.o(.text)
    TIM_SelectSlaveMode                      0x08005e33   Thumb Code    18  stm32f4xx_tim.o(.text)
    TIM_SelectMasterSlaveMode                0x08005e45   Thumb Code    18  stm32f4xx_tim.o(.text)
    TIM_EncoderInterfaceConfig               0x08005e57   Thumb Code    66  stm32f4xx_tim.o(.text)
    TIM_SelectHallSensor                     0x08005e99   Thumb Code    24  stm32f4xx_tim.o(.text)
    TIM_RemapConfig                          0x08005eb1   Thumb Code     6  stm32f4xx_tim.o(.text)
    USART_DeInit                             0x08005eb9   Thumb Code   156  stm32f4xx_usart.o(.text)
    USART_Init                               0x08005f55   Thumb Code   204  stm32f4xx_usart.o(.text)
    USART_StructInit                         0x08006021   Thumb Code    24  stm32f4xx_usart.o(.text)
    USART_ClockInit                          0x08006039   Thumb Code    32  stm32f4xx_usart.o(.text)
    USART_ClockStructInit                    0x08006059   Thumb Code    12  stm32f4xx_usart.o(.text)
    USART_Cmd                                0x08006065   Thumb Code    24  stm32f4xx_usart.o(.text)
    USART_SetPrescaler                       0x0800607d   Thumb Code    16  stm32f4xx_usart.o(.text)
    USART_OverSampling8Cmd                   0x0800608d   Thumb Code    22  stm32f4xx_usart.o(.text)
    USART_OneBitMethodCmd                    0x080060a3   Thumb Code    24  stm32f4xx_usart.o(.text)
    USART_SendData                           0x080060bb   Thumb Code     8  stm32f4xx_usart.o(.text)
    USART_ReceiveData                        0x080060c3   Thumb Code    10  stm32f4xx_usart.o(.text)
    USART_SetAddress                         0x080060cd   Thumb Code    18  stm32f4xx_usart.o(.text)
    USART_ReceiverWakeUpCmd                  0x080060df   Thumb Code    24  stm32f4xx_usart.o(.text)
    USART_WakeUpConfig                       0x080060f7   Thumb Code    18  stm32f4xx_usart.o(.text)
    USART_LINBreakDetectLengthConfig         0x08006109   Thumb Code    18  stm32f4xx_usart.o(.text)
    USART_LINCmd                             0x0800611b   Thumb Code    24  stm32f4xx_usart.o(.text)
    USART_SendBreak                          0x08006133   Thumb Code    10  stm32f4xx_usart.o(.text)
    USART_HalfDuplexCmd                      0x0800613d   Thumb Code    24  stm32f4xx_usart.o(.text)
    USART_SetGuardTime                       0x08006155   Thumb Code    16  stm32f4xx_usart.o(.text)
    USART_SmartCardCmd                       0x08006165   Thumb Code    24  stm32f4xx_usart.o(.text)
    USART_SmartCardNACKCmd                   0x0800617d   Thumb Code    24  stm32f4xx_usart.o(.text)
    USART_IrDAConfig                         0x08006195   Thumb Code    18  stm32f4xx_usart.o(.text)
    USART_IrDACmd                            0x080061a7   Thumb Code    24  stm32f4xx_usart.o(.text)
    USART_DMACmd                             0x080061bf   Thumb Code    18  stm32f4xx_usart.o(.text)
    USART_ITConfig                           0x080061d1   Thumb Code    74  stm32f4xx_usart.o(.text)
    USART_GetFlagStatus                      0x0800621b   Thumb Code    26  stm32f4xx_usart.o(.text)
    USART_ClearFlag                          0x08006235   Thumb Code    18  stm32f4xx_usart.o(.text)
    USART_GetITStatus                        0x08006247   Thumb Code   110  stm32f4xx_usart.o(.text)
    USART_ClearITPendingBit                  0x080062b5   Thumb Code    30  stm32f4xx_usart.o(.text)
    SystemInit                               0x080063b1   Thumb Code    88  system_stm32f4xx.o(.text)
    SystemCoreClockUpdate                    0x08006409   Thumb Code   174  system_stm32f4xx.o(.text)
    Reset_Handler                            0x080064e5   Thumb Code     8  startup_stm32f4xx.o(.text)
    HardFault_Handler                        0x080064ef   Thumb Code     2  startup_stm32f4xx.o(.text)
    PendSV_Handler                           0x080064fb   Thumb Code     2  startup_stm32f4xx.o(.text)
    ADC_IRQHandler                           0x080064ff   Thumb Code     0  startup_stm32f4xx.o(.text)
    CAN1_RX0_IRQHandler                      0x080064ff   Thumb Code     0  startup_stm32f4xx.o(.text)
    CAN1_RX1_IRQHandler                      0x080064ff   Thumb Code     0  startup_stm32f4xx.o(.text)
    CAN1_SCE_IRQHandler                      0x080064ff   Thumb Code     0  startup_stm32f4xx.o(.text)
    CAN1_TX_IRQHandler                       0x080064ff   Thumb Code     0  startup_stm32f4xx.o(.text)
    CAN2_RX0_IRQHandler                      0x080064ff   Thumb Code     0  startup_stm32f4xx.o(.text)
    CAN2_RX1_IRQHandler                      0x080064ff   Thumb Code     0  startup_stm32f4xx.o(.text)
    CAN2_SCE_IRQHandler                      0x080064ff   Thumb Code     0  startup_stm32f4xx.o(.text)
    CAN2_TX_IRQHandler                       0x080064ff   Thumb Code     0  startup_stm32f4xx.o(.text)
    CRYP_IRQHandler                          0x080064ff   Thumb Code     0  startup_stm32f4xx.o(.text)
    DCMI_IRQHandler                          0x080064ff   Thumb Code     0  startup_stm32f4xx.o(.text)
    DMA1_Stream0_IRQHandler                  0x080064ff   Thumb Code     0  startup_stm32f4xx.o(.text)
    DMA1_Stream1_IRQHandler                  0x080064ff   Thumb Code     0  startup_stm32f4xx.o(.text)
    DMA1_Stream2_IRQHandler                  0x080064ff   Thumb Code     0  startup_stm32f4xx.o(.text)
    DMA1_Stream3_IRQHandler                  0x080064ff   Thumb Code     0  startup_stm32f4xx.o(.text)
    DMA1_Stream4_IRQHandler                  0x080064ff   Thumb Code     0  startup_stm32f4xx.o(.text)
    DMA1_Stream5_IRQHandler                  0x080064ff   Thumb Code     0  startup_stm32f4xx.o(.text)
    DMA1_Stream6_IRQHandler                  0x080064ff   Thumb Code     0  startup_stm32f4xx.o(.text)
    DMA1_Stream7_IRQHandler                  0x080064ff   Thumb Code     0  startup_stm32f4xx.o(.text)
    DMA2_Stream0_IRQHandler                  0x080064ff   Thumb Code     0  startup_stm32f4xx.o(.text)
    DMA2_Stream1_IRQHandler                  0x080064ff   Thumb Code     0  startup_stm32f4xx.o(.text)
    DMA2_Stream2_IRQHandler                  0x080064ff   Thumb Code     0  startup_stm32f4xx.o(.text)
    DMA2_Stream3_IRQHandler                  0x080064ff   Thumb Code     0  startup_stm32f4xx.o(.text)
    DMA2_Stream4_IRQHandler                  0x080064ff   Thumb Code     0  startup_stm32f4xx.o(.text)
    DMA2_Stream5_IRQHandler                  0x080064ff   Thumb Code     0  startup_stm32f4xx.o(.text)
    DMA2_Stream6_IRQHandler                  0x080064ff   Thumb Code     0  startup_stm32f4xx.o(.text)
    DMA2_Stream7_IRQHandler                  0x080064ff   Thumb Code     0  startup_stm32f4xx.o(.text)
    ETH_IRQHandler                           0x080064ff   Thumb Code     0  startup_stm32f4xx.o(.text)
    ETH_WKUP_IRQHandler                      0x080064ff   Thumb Code     0  startup_stm32f4xx.o(.text)
    EXTI0_IRQHandler                         0x080064ff   Thumb Code     0  startup_stm32f4xx.o(.text)
    EXTI15_10_IRQHandler                     0x080064ff   Thumb Code     0  startup_stm32f4xx.o(.text)
    EXTI1_IRQHandler                         0x080064ff   Thumb Code     0  startup_stm32f4xx.o(.text)
    EXTI2_IRQHandler                         0x080064ff   Thumb Code     0  startup_stm32f4xx.o(.text)
    EXTI3_IRQHandler                         0x080064ff   Thumb Code     0  startup_stm32f4xx.o(.text)
    EXTI4_IRQHandler                         0x080064ff   Thumb Code     0  startup_stm32f4xx.o(.text)
    EXTI9_5_IRQHandler                       0x080064ff   Thumb Code     0  startup_stm32f4xx.o(.text)
    FLASH_IRQHandler                         0x080064ff   Thumb Code     0  startup_stm32f4xx.o(.text)
    FPU_IRQHandler                           0x080064ff   Thumb Code     0  startup_stm32f4xx.o(.text)
    FSMC_IRQHandler                          0x080064ff   Thumb Code     0  startup_stm32f4xx.o(.text)
    HASH_RNG_IRQHandler                      0x080064ff   Thumb Code     0  startup_stm32f4xx.o(.text)
    I2C1_ER_IRQHandler                       0x080064ff   Thumb Code     0  startup_stm32f4xx.o(.text)
    I2C1_EV_IRQHandler                       0x080064ff   Thumb Code     0  startup_stm32f4xx.o(.text)
    I2C2_ER_IRQHandler                       0x080064ff   Thumb Code     0  startup_stm32f4xx.o(.text)
    I2C2_EV_IRQHandler                       0x080064ff   Thumb Code     0  startup_stm32f4xx.o(.text)
    I2C3_ER_IRQHandler                       0x080064ff   Thumb Code     0  startup_stm32f4xx.o(.text)
    I2C3_EV_IRQHandler                       0x080064ff   Thumb Code     0  startup_stm32f4xx.o(.text)
    OTG_FS_IRQHandler                        0x080064ff   Thumb Code     0  startup_stm32f4xx.o(.text)
    OTG_FS_WKUP_IRQHandler                   0x080064ff   Thumb Code     0  startup_stm32f4xx.o(.text)
    OTG_HS_EP1_IN_IRQHandler                 0x080064ff   Thumb Code     0  startup_stm32f4xx.o(.text)
    OTG_HS_EP1_OUT_IRQHandler                0x080064ff   Thumb Code     0  startup_stm32f4xx.o(.text)
    OTG_HS_IRQHandler                        0x080064ff   Thumb Code     0  startup_stm32f4xx.o(.text)
    OTG_HS_WKUP_IRQHandler                   0x080064ff   Thumb Code     0  startup_stm32f4xx.o(.text)
    PVD_IRQHandler                           0x080064ff   Thumb Code     0  startup_stm32f4xx.o(.text)
    RCC_IRQHandler                           0x080064ff   Thumb Code     0  startup_stm32f4xx.o(.text)
    RTC_Alarm_IRQHandler                     0x080064ff   Thumb Code     0  startup_stm32f4xx.o(.text)
    RTC_WKUP_IRQHandler                      0x080064ff   Thumb Code     0  startup_stm32f4xx.o(.text)
    SDIO_IRQHandler                          0x080064ff   Thumb Code     0  startup_stm32f4xx.o(.text)
    SPI1_IRQHandler                          0x080064ff   Thumb Code     0  startup_stm32f4xx.o(.text)
    SPI3_IRQHandler                          0x080064ff   Thumb Code     0  startup_stm32f4xx.o(.text)
    TAMP_STAMP_IRQHandler                    0x080064ff   Thumb Code     0  startup_stm32f4xx.o(.text)
    TIM1_BRK_TIM9_IRQHandler                 0x080064ff   Thumb Code     0  startup_stm32f4xx.o(.text)
    TIM1_CC_IRQHandler                       0x080064ff   Thumb Code     0  startup_stm32f4xx.o(.text)
    TIM1_TRG_COM_TIM11_IRQHandler            0x080064ff   Thumb Code     0  startup_stm32f4xx.o(.text)
    TIM1_UP_TIM10_IRQHandler                 0x080064ff   Thumb Code     0  startup_stm32f4xx.o(.text)
    TIM2_IRQHandler                          0x080064ff   Thumb Code     0  startup_stm32f4xx.o(.text)
    TIM5_IRQHandler                          0x080064ff   Thumb Code     0  startup_stm32f4xx.o(.text)
    TIM6_DAC_IRQHandler                      0x080064ff   Thumb Code     0  startup_stm32f4xx.o(.text)
    TIM7_IRQHandler                          0x080064ff   Thumb Code     0  startup_stm32f4xx.o(.text)
    TIM8_BRK_TIM12_IRQHandler                0x080064ff   Thumb Code     0  startup_stm32f4xx.o(.text)
    TIM8_CC_IRQHandler                       0x080064ff   Thumb Code     0  startup_stm32f4xx.o(.text)
    TIM8_TRG_COM_TIM14_IRQHandler            0x080064ff   Thumb Code     0  startup_stm32f4xx.o(.text)
    TIM8_UP_TIM13_IRQHandler                 0x080064ff   Thumb Code     0  startup_stm32f4xx.o(.text)
    USART6_IRQHandler                        0x080064ff   Thumb Code     0  startup_stm32f4xx.o(.text)
    WWDG_IRQHandler                          0x080064ff   Thumb Code     0  startup_stm32f4xx.o(.text)
    __user_initial_stackheap                 0x08006501   Thumb Code     0  startup_stm32f4xx.o(.text)
    IMUupdate                                0x08006525   Thumb Code  2944  imu.o(.text)
    invSqrt                                  0x080070a5   Thumb Code    56  imu.o(.text)
    MadgwickAHRSupdateIMU                    0x080070dd   Thumb Code  1012  imu.o(.text)
    MadgwickAHRSupdate                       0x080074d1   Thumb Code  5376  imu.o(.text)
    calculateAccConfidence                   0x080089d1   Thumb Code   498  imu.o(.text)
    To_180_degrees_imu                       0x08008bc3   Thumb Code    58  imu.o(.text)
    MargAHRSinit                             0x08008bfd   Thumb Code   760  imu.o(.text)
    MargAHRSupdate                           0x08008ef5   Thumb Code  2570  imu.o(.text)
    body_to_NEZ                              0x08009945   Thumb Code   430  alt_fushion.o(.text)
    navUkfRotateVectorByRevQuat              0x08009af3   Thumb Code    64  alt_fushion.o(.text)
    ukf_baro_task1                           0x08009bad   Thumb Code  3094  alt_fushion.o(.text)
    my_abs                                   0x0800a83d   Thumb Code    26  mymath.o(.text)
    fast_atan2                               0x0800a857   Thumb Code   350  mymath.o(.text)
    my_atan                                  0x0800a9b5   Thumb Code    24  mymath.o(.text)
    my_sqrt                                  0x0800a9cd   Thumb Code    88  mymath.o(.text)
    mx_sin                                   0x0800aa25   Thumb Code   292  mymath.o(.text)
    my_sin                                   0x0800ab49   Thumb Code   108  mymath.o(.text)
    my_cos                                   0x0800abb5   Thumb Code   136  mymath.o(.text)
    my_deadzone_p                            0x0800ac3d   Thumb Code   142  mymath.o(.text)
    my_deadzone_n                            0x0800accb   Thumb Code    44  mymath.o(.text)
    my_deathzoom_21                          0x0800acf7   Thumb Code    40  mymath.o(.text)
    my_deathzoom_rc                          0x0800ad1f   Thumb Code   216  mymath.o(.text)
    my_deathzoom1                            0x0800adf7   Thumb Code    62  mymath.o(.text)
    my_deathzoom                             0x0800ae35   Thumb Code    54  mymath.o(.text)
    my_deathzoom_2                           0x0800ae6b   Thumb Code    48  mymath.o(.text)
    To_180_degrees_db                        0x0800ae9b   Thumb Code   108  mymath.o(.text)
    To_180_degrees                           0x0800af07   Thumb Code    58  mymath.o(.text)
    linear_interpolation_5                   0x0800af41   Thumb Code   310  mymath.o(.text)
    IIR_LP                                   0x0800b077   Thumb Code   214  mymath.o(.text)
    IIR_I_Filter                             0x0800b14d   Thumb Code   294  filter.o(.text)
    anotc_filter_1                           0x0800b273   Thumb Code   366  filter.o(.text)
    Moving_Average1                          0x0800b3e1   Thumb Code    94  filter.o(.text)
    Moving_Average                           0x0800b43f   Thumb Code    94  filter.o(.text)
    Moving_Median                            0x0800b49d   Thumb Code   326  filter.o(.text)
    simple_3d_trans                          0x0800b5e3   Thumb Code   240  filter.o(.text)
    initFirstOrderFilter                     0x0800b6d3   Thumb Code   222  filter.o(.text)
    firstOrderFilter                         0x0800b7b1   Thumb Code    90  filter.o(.text)
    intToDouble                              0x0800b83d   Thumb Code    32  fastmath.o(.text)
    floatToDouble                            0x0800b85d   Thumb Code    28  fastmath.o(.text)
    doubleToDouble                           0x0800b879   Thumb Code    78  fastmath.o(.text)
    DoubleTodouble                           0x0800b8c7   Thumb Code    72  fastmath.o(.text)
    DoubleAdd                                0x0800b90f   Thumb Code   114  fastmath.o(.text)
    DoubleSub                                0x0800b981   Thumb Code   118  fastmath.o(.text)
    DoubleMul                                0x0800b9f7   Thumb Code   250  fastmath.o(.text)
    DoubleDiv                                0x0800baf1   Thumb Code   348  fastmath.o(.text)
    Modf                                     0x0800bc4d   Thumb Code   122  fastmath.o(.text)
    FastPow                                  0x0800bcc7   Thumb Code  1150  fastmath.o(.text)
    FastTan                                  0x0800c145   Thumb Code   356  fastmath.o(.text)
    FastLn                                   0x0800c2a9   Thumb Code   256  fastmath.o(.text)
    FastSqrtI                                0x0800c3a9   Thumb Code    58  fastmath.o(.text)
    FastSqrt                                 0x0800c3e3   Thumb Code    20  fastmath.o(.text)
    FastAsin                                 0x0800c3f7   Thumb Code   390  fastmath.o(.text)
    FastAtan2                                0x0800c57d   Thumb Code   388  fastmath.o(.text)
    FastSinCos                               0x0800c701   Thumb Code   394  fastmath.o(.text)
    FastSin                                  0x0800c88b   Thumb Code   212  fastmath.o(.text)
    FastCos                                  0x0800c95f   Thumb Code   132  fastmath.o(.text)
    FastSqrtID                               0x0800c9e3   Thumb Code   256  fastmath.o(.text)
    FastSqrtD                                0x0800cae3   Thumb Code   300  fastmath.o(.text)
    Quaternion_Add                           0x0800cc35   Thumb Code    66  quar.o(.text)
    Quaternion_Sub                           0x0800cc77   Thumb Code    66  quar.o(.text)
    Quaternion_Multiply                      0x0800ccb9   Thumb Code   210  quar.o(.text)
    Quaternion_Conjugate                     0x0800cd8b   Thumb Code    46  quar.o(.text)
    Quaternion_Scalar                        0x0800cdb9   Thumb Code    50  quar.o(.text)
    Quaternion_Normalize                     0x0800cdeb   Thumb Code   118  quar.o(.text)
    Quaternion_FromEuler                     0x0800ce61   Thumb Code   260  quar.o(.text)
    Quaternion_ToNumQ                        0x0800cf65   Thumb Code   400  quar.o(.text)
    Quaternion_ToEuler                       0x0800d0f5   Thumb Code   590  quar.o(.text)
    Quaternion_To_R                          0x0800d343   Thumb Code   360  quar.o(.text)
    Quaternion_To_R2                         0x0800d4ab   Thumb Code   326  quar.o(.text)
    Eular_FromRotationMatrix                 0x0800d5f1   Thumb Code   262  quar.o(.text)
    Quaternion_FromRotationMatrix            0x0800d6f7   Thumb Code   554  quar.o(.text)
    Quaternion_RungeKutta4                   0x0800d921   Thumb Code   300  quar.o(.text)
    Quaternion_From6AxisData                 0x0800da4d   Thumb Code   486  quar.o(.text)
    euler_to_q                               0x0800dc33   Thumb Code   680  quar.o(.text)
    dcm_to_q                                 0x0800dedb   Thumb Code   504  quar.o(.text)
    q_to_euler                               0x0800e0d3   Thumb Code   212  quar.o(.text)
    q_to_dcm                                 0x0800e1a7   Thumb Code   314  quar.o(.text)
    dcm_to_euler                             0x0800e2e1   Thumb Code   320  quar.o(.text)
    M33_X                                    0x0800e421   Thumb Code   120  quar.o(.text)
    M33_Pluse                                0x0800e499   Thumb Code   362  quar.o(.text)
    M33_Pluse_2                              0x0800e603   Thumb Code    68  quar.o(.text)
    M33_add                                  0x0800e647   Thumb Code    84  quar.o(.text)
    M33_t                                    0x0800e69b   Thumb Code    60  quar.o(.text)
    cal_ero_outter_so3                       0x0800e6d7   Thumb Code  1806  quar.o(.text)
    Ctrl_Para_Init                           0x0800ee05   Thumb Code    36  ctrl.o(.text)
    CTRL_2                                   0x0800ee29   Thumb Code  2260  ctrl.o(.text)
    All_Out                                  0x0800f6fd   Thumb Code  2066  ctrl.o(.text)
    Thr_Ctrl                                 0x0800ff0f   Thumb Code   796  ctrl.o(.text)
    CTRL_1                                   0x0801022b   Thumb Code  2872  ctrl.o(.text)
    Ultra_PID_Init                           0x08010d7d   Thumb Code    88  height_ctrl.o(.text)
    WZ_Speed_PID_Init                        0x08010dd5   Thumb Code   102  height_ctrl.o(.text)
    height_mode_switch                       0x08010e3b   Thumb Code     2  height_ctrl.o(.text)
    Ultra_Ctrl1                              0x08010e3d   Thumb Code  3000  height_ctrl.o(.text)
    height_speed_ctrl1                       0x080119f5   Thumb Code  2056  height_ctrl.o(.text)
    Height_Ctrl1                             0x080121fd   Thumb Code  2172  height_ctrl.o(.text)
    Thr_down_min_portect                     0x08012a79   Thumb Code   234  height_ctrl.o(.text)
    circle_control                           0x08012be1   Thumb Code     2  pos_ctrl.o(.text)
    data_d                                   0x08012be3   Thumb Code    66  pos_ctrl.o(.text)
    backstep_pos                             0x08012c25   Thumb Code  1860  pos_ctrl.o(.text)
    Nav_pos_set_test                         0x08013369   Thumb Code  1308  pos_ctrl.o(.text)
    reset_nav_pos                            0x08013885   Thumb Code    32  pos_ctrl.o(.text)
    Positon_control                          0x080138a5   Thumb Code  8606  pos_ctrl.o(.text)
    AUTO_LAND_FLYUP                          0x08015a43   Thumb Code  3048  pos_ctrl.o(.text)
    Uart5_Send                               0x08016641   Thumb Code    30  usart.o(.text)
    Uart3_Send                               0x0801665f   Thumb Code    28  usart.o(.text)
    UsartSend_UP_LINK                        0x0801667b   Thumb Code    28  usart.o(.text)
    UsartSend_APP                            0x080166b1   Thumb Code    28  usart.o(.text)
    UsartSend_SD                             0x080166e7   Thumb Code    28  usart.o(.text)
    UART2_Put_Char                           0x0801671d   Thumb Code    28  usart.o(.text)
    Usart2_Init                              0x08016739   Thumb Code   202  usart.o(.text)
    Data_Receive_Anl                         0x08016803   Thumb Code  4706  usart.o(.text)
    USART2_IRQHandler                        0x08017a65   Thumb Code   402  usart.o(.text)
    UsartSend_GOL_LINK                       0x08017bf7   Thumb Code    28  usart.o(.text)
    Send_IMU_TO_FLOW                         0x08017c2d   Thumb Code   824  usart.o(.text)
    Send_PID                                 0x08017f65   Thumb Code   682  usart.o(.text)
    Send_IMU_PARM                            0x0801820f   Thumb Code   246  usart.o(.text)
    GOL_LINK_TASK                            0x08018305   Thumb Code    78  usart.o(.text)
    Uart5_Init                               0x08018353   Thumb Code   248  usart.o(.text)
    Data_Receive_Anl5                        0x0801844b   Thumb Code   978  usart.o(.text)
    UART5_IRQHandler                         0x0801881d   Thumb Code   330  usart.o(.text)
    Usart1_Init                              0x08018967   Thumb Code   276  usart.o(.text)
    Send_Status                              0x08018a7b   Thumb Code  1244  usart.o(.text)
    Send_GPS                                 0x08018f57   Thumb Code   802  usart.o(.text)
    Send_BAT                                 0x08019279   Thumb Code   252  usart.o(.text)
    Send_PID1                                0x08019375   Thumb Code   552  usart.o(.text)
    Send_PID2                                0x0801959d   Thumb Code   332  usart.o(.text)
    Send_Senser                              0x080196e9   Thumb Code   870  usart.o(.text)
    Send_GPS_Ublox                           0x08019a4f   Thumb Code   784  usart.o(.text)
    Send_DEBUG1                              0x08019d5f   Thumb Code   222  usart.o(.text)
    APP_LINK                                 0x08019e3d   Thumb Code    32  usart.o(.text)
    Data_app                                 0x08019e5d   Thumb Code  1118  usart.o(.text)
    USART1_IRQHandler                        0x0801a2bb   Thumb Code   278  usart.o(.text)
    Data_Receive_Anl4                        0x0801a3d1   Thumb Code  2552  usart.o(.text)
    UART4_IRQHandler                         0x0801adc9   Thumb Code   340  usart.o(.text)
    Usart4_Init                              0x0801af1d   Thumb Code   218  usart.o(.text)
    Usart3_Init                              0x0801aff7   Thumb Code   218  usart.o(.text)
    Data_Receive_Anl3                        0x0801b0d1   Thumb Code   292  usart.o(.text)
    USART3_IRQHandler                        0x0801b1f5   Thumb Code   346  usart.o(.text)
    UsartSend_GPS                            0x0801b34f   Thumb Code    28  usart.o(.text)
    Send_IMU_TO_GPS                          0x0801b385   Thumb Code   830  usart.o(.text)
    CPU_LINK_TASK                            0x0801b6c3   Thumb Code    30  usart.o(.text)
    UsartSend_GOL_LINK_NAV                   0x0801b6e1   Thumb Code    28  usart.o(.text)
    Send_IMU_NAV                             0x0801b717   Thumb Code   600  usart.o(.text)
    Usart1_Send_DMA                          0x0801b96f   Thumb Code    36  usart.o(.text)
    data_per_uart1                           0x0801b993   Thumb Code   256  usart.o(.text)
    data_per_uart2                           0x0801ba93   Thumb Code   750  usart.o(.text)
    data_per_uart3                           0x0801bd81   Thumb Code   624  usart.o(.text)
    data_per_uart4                           0x0801bff1   Thumb Code  7742  usart.o(.text)
    sd_publish                               0x0801de2f   Thumb Code  1642  usart.o(.text)
    clear_nrf_uart                           0x0801e499   Thumb Code    20  usart.o(.text)
    data_per_uart4_ble                       0x0801e4ad   Thumb Code  1336  usart.o(.text)
    ANO_DT_Send_Data                         0x0801e9e9   Thumb Code    16  data_transfer.o(.text)
    ANO_DT_Send_PID                          0x0801ea75   Thumb Code   562  data_transfer.o(.text)
    ANO_DT_Send_MotoPWM                      0x0801eca7   Thumb Code   302  data_transfer.o(.text)
    ANO_DT_Send_Senser                       0x0801edd5   Thumb Code   160  data_transfer.o(.text)
    ANO_DT_Send_Senser2                      0x0801ee75   Thumb Code   154  data_transfer.o(.text)
    ANO_DT_Send_QR1                          0x0801ef0f   Thumb Code   242  data_transfer.o(.text)
    ANO_DT_Send_Speed                        0x0801f001   Thumb Code   242  data_transfer.o(.text)
    ANO_DT_Send_RCData                       0x0801f0f3   Thumb Code   378  data_transfer.o(.text)
    ANO_DT_Send_Status                       0x0801f26d   Thumb Code   344  data_transfer.o(.text)
    ANO_DT_Data_Exchange                     0x0801f3c5   Thumb Code  3300  data_transfer.o(.text)
    ANO_DT_Data_Receive_Anl                  0x080200a9   Thumb Code  3304  data_transfer.o(.text)
    ANO_DT_Data_Receive_Prepare              0x08020d91   Thumb Code   216  data_transfer.o(.text)
    ANO_DT_Send_Version                      0x08020e69   Thumb Code   192  data_transfer.o(.text)
    ANO_DT_Send_Location                     0x08020f29   Thumb Code   344  data_transfer.o(.text)
    ANO_DT_Send_Power                        0x08021081   Thumb Code   136  data_transfer.o(.text)
    ANO_DT_Send_User                         0x08021109   Thumb Code   134  data_transfer.o(.text)
    ANO_DT_Send_QR2                          0x0802118f   Thumb Code   242  data_transfer.o(.text)
    CH_Mapping_Fun                           0x0802128d   Thumb Code    28  rc.o(.text)
    Fly_Ready                                0x080212a9   Thumb Code   314  rc.o(.text)
    RC_Duty                                  0x080213e3   Thumb Code  1230  rc.o(.text)
    Feed_Rc_Dog                              0x080218b1   Thumb Code    12  rc.o(.text)
    MYDMA_Config                             0x080218f9   Thumb Code   184  dma.o(.text)
    MYDMA_Enable                             0x080219b1   Thumb Code    44  dma.o(.text)
    MPU6050_Read                             0x080219e1   Thumb Code    22  mpu6050.o(.text)
    IICwriteBit                              0x080219f7   Thumb Code    78  mpu6050.o(.text)
    IICwriteBits                             0x08021a45   Thumb Code   102  mpu6050.o(.text)
    MPU6050_set_SMPLRT_DIV                   0x08021aab   Thumb Code    28  mpu6050.o(.text)
    MPU6050_setClockSource                   0x08021ac7   Thumb Code    20  mpu6050.o(.text)
    MPU6050_setFullScaleGyroRange            0x08021adb   Thumb Code    36  mpu6050.o(.text)
    MPU6050_setFullScaleAccelRange           0x08021aff   Thumb Code    36  mpu6050.o(.text)
    MPU6050_setSleepEnabled                  0x08021b23   Thumb Code    18  mpu6050.o(.text)
    MPU6050_setI2CMasterModeEnabled          0x08021b35   Thumb Code    18  mpu6050.o(.text)
    MPU6050_setI2CBypassEnabled              0x08021b47   Thumb Code    18  mpu6050.o(.text)
    MPU6050_setDLPF                          0x08021b59   Thumb Code    20  mpu6050.o(.text)
    MPU6050_INT_Config                       0x08021b6d   Thumb Code    56  mpu6050.o(.text)
    MPU6050_Init                             0x08021ba5   Thumb Code   184  mpu6050.o(.text)
    MPU6050_Data_Offset                      0x08021c5d   Thumb Code   618  mpu6050.o(.text)
    Transform                                0x08021ec7   Thumb Code    14  mpu6050.o(.text)
    MPU6050_Data_Prepare                     0x08021ed5   Thumb Code  1170  mpu6050.o(.text)
    XYZ_STRUCT_COPY                          0x08022379   Thumb Code    40  ak8975.o(.text)
    ANO_AK8975_CalOffset_Mag                 0x080223a1   Thumb Code   964  ak8975.o(.text)
    HMC58X3_newValues                        0x08022765   Thumb Code   240  ak8975.o(.text)
    HMC58X3_getRaw                           0x08022855   Thumb Code   120  ak8975.o(.text)
    ANO_AK8975_Read_Mag_Data                 0x080228cd   Thumb Code   474  ak8975.o(.text)
    ANO_AK8975_Get_Mag                       0x08022aa7   Thumb Code    16  ak8975.o(.text)
    ANO_AK8975_Read                          0x08022ab7   Thumb Code     8  ak8975.o(.text)
    HMC5883_IS_newdata                       0x08022abf   Thumb Code    20  ak8975.o(.text)
    HMC58X3_FIFO_init                        0x08022ad3   Thumb Code    32  ak8975.o(.text)
    HMC58X3_writeReg                         0x08022af3   Thumb Code    18  ak8975.o(.text)
    HMC58X3_getlastValues                    0x08022b05   Thumb Code    22  ak8975.o(.text)
    HMC58X3_mgetValues                       0x08022b1b   Thumb Code   136  ak8975.o(.text)
    HMC58X3_setGain                          0x08022ba3   Thumb Code    24  ak8975.o(.text)
    HMC58X3_setMode                          0x08022bbb   Thumb Code    98  ak8975.o(.text)
    HMC58X3_init                             0x08022c1d   Thumb Code    38  ak8975.o(.text)
    HMC58X3_setDOR                           0x08022c43   Thumb Code    24  ak8975.o(.text)
    HMC58X3_getID                            0x08022c5b   Thumb Code    36  ak8975.o(.text)
    HMC5883L_SetUp                           0x08022c7f   Thumb Code    38  ak8975.o(.text)
    MS561101BA_NewTemp                       0x08022ca5   Thumb Code    22  bmp.o(.text)
    MS561101BA_NewPress                      0x08022cbb   Thumb Code    22  bmp.o(.text)
    MS561101BA_NewAlt                        0x08022cd1   Thumb Code    42  bmp.o(.text)
    MS561101BA_getAvg                        0x08022cfb   Thumb Code    50  bmp.o(.text)
    MS561101BA_readPROM                      0x08022d2d   Thumb Code   110  bmp.o(.text)
    MS561101BA_reset                         0x08022d9b   Thumb Code    32  bmp.o(.text)
    MS561101BA_startConversion               0x08022dbb   Thumb Code    34  bmp.o(.text)
    MS561101BA_getConversion                 0x08022ddd   Thumb Code   104  bmp.o(.text)
    MS5611_Init_FC                           0x08022e45   Thumb Code    18  bmp.o(.text)
    MS561101BA_GetTemperature                0x08022e57   Thumb Code    12  bmp.o(.text)
    MS561101BA_get_altitude                  0x08022e63   Thumb Code   328  bmp.o(.text)
    MS561101BA_getPressure                   0x08022fab   Thumb Code   830  bmp.o(.text)
    MS5611_ThreadNew                         0x080232e9   Thumb Code   172  bmp.o(.text)
    WaitBaroInitOffset                       0x08023395   Thumb Code    58  bmp.o(.text)
    Ultrasonic_Init                          0x08023421   Thumb Code    12  ultrasonic.o(.text)
    Ultra_Duty                               0x0802342d   Thumb Code    88  ultrasonic.o(.text)
    sonar_filter_oldx                        0x08023485   Thumb Code   416  ultrasonic.o(.text)
    insert_sonar_value_and_get_mode_value    0x08023685   Thumb Code    84  ultrasonic.o(.text)
    Ultra_Get                                0x080236d9   Thumb Code   204  ultrasonic.o(.text)
    baro_compensate                          0x080237d9   Thumb Code   274  anotc_baro_ctrl.o(.text)
    fusion_prepare                           0x080238eb   Thumb Code   178  anotc_baro_ctrl.o(.text)
    acc_fusion                               0x0802399d   Thumb Code   388  anotc_baro_ctrl.o(.text)
    baro_ctrl                                0x08023b21   Thumb Code   628  anotc_baro_ctrl.o(.text)
    kf_oldx                                  0x08024669   Thumb Code  3726  kf_oldx.o(.text)
    kf_oldx_initialize                       0x080254f7   Thumb Code    10  kf_oldx.o(.text)
    kf_oldx_terminate                        0x08025501   Thumb Code     2  kf_oldx.o(.text)
    OLDX_SMOOTH_IN_ESO                       0x08025bc9   Thumb Code    94  eso.o(.text)
    ESO_2N                                   0x08025c27   Thumb Code   480  eso.o(.text)
    ESO_3N                                   0x08025e07   Thumb Code   392  eso.o(.text)
    ESO_CONTROL                              0x08025f8f   Thumb Code   480  eso.o(.text)
    OLDX_ATT_CONTRL_INNER_ESO                0x0802616f   Thumb Code   712  eso.o(.text)
    OLDX_ESO_2N_POS                          0x08026437   Thumb Code   460  eso.o(.text)
    OLDX_ESO_CONTROL_POS                     0x08026603   Thumb Code   366  eso.o(.text)
    OLDX_POS_CONTROL_ESO                     0x08026771   Thumb Code   592  eso.o(.text)
    OLDX_AUTO_B0                             0x080269c1   Thumb Code    34  eso.o(.text)
    rt_InitInfAndNaN                         0x08026a21   Thumb Code    66  rt_nonfinite.o(.text)
    rtIsInf                                  0x08026a63   Thumb Code    66  rt_nonfinite.o(.text)
    rtIsInfF                                 0x08026aa5   Thumb Code    40  rt_nonfinite.o(.text)
    rtIsNaN                                  0x08026acd   Thumb Code    40  rt_nonfinite.o(.text)
    rtIsNaNF                                 0x08026af5   Thumb Code    18  rt_nonfinite.o(.text)
    rtGetInfF                                0x08026b21   Thumb Code    14  rtgetinf.o(.text)
    rtGetInf                                 0x08026b2f   Thumb Code   130  rtgetinf.o(.text)
    rtGetMinusInfF                           0x08026bb1   Thumb Code    12  rtgetinf.o(.text)
    rtGetMinusInf                            0x08026bbd   Thumb Code   130  rtgetinf.o(.text)
    rtGetNaNF                                0x08026c55   Thumb Code    48  rtgetnan.o(.text)
    rtGetNaN                                 0x08026c85   Thumb Code   134  rtgetnan.o(.text)
    __aeabi_ldivmod                          0x08026d1d   Thumb Code     0  llsdiv.o(.text)
    _ll_sdiv                                 0x08026d1d   Thumb Code    72  llsdiv.o(.text)
    __aeabi_memcpy4                          0x08026d65   Thumb Code     0  rt_memcpy_w.o(.text)
    __aeabi_memcpy8                          0x08026d65   Thumb Code     0  rt_memcpy_w.o(.text)
    __rt_memcpy_w                            0x08026d65   Thumb Code   100  rt_memcpy_w.o(.text)
    _memcpy_lastbytes_aligned                0x08026dad   Thumb Code     0  rt_memcpy_w.o(.text)
    __aeabi_memclr4                          0x08026dc9   Thumb Code     0  rt_memclr_w.o(.text)
    __aeabi_memclr8                          0x08026dc9   Thumb Code     0  rt_memclr_w.o(.text)
    __rt_memclr_w                            0x08026dc9   Thumb Code    78  rt_memclr_w.o(.text)
    _memset_w                                0x08026dcd   Thumb Code     0  rt_memclr_w.o(.text)
    __use_two_region_memory                  0x08026e17   Thumb Code     2  heapauxi.o(.text)
    __rt_heap_escrow$2region                 0x08026e19   Thumb Code     2  heapauxi.o(.text)
    __rt_heap_expand$2region                 0x08026e1b   Thumb Code     2  heapauxi.o(.text)
    __aeabi_uldivmod                         0x08026e1d   Thumb Code     0  lludivv7m.o(.text)
    _ll_udiv                                 0x08026e1d   Thumb Code   238  lludivv7m.o(.text)
    __read_errno                             0x08026f0b   Thumb Code    10  _rserrno.o(.text)
    __set_errno                              0x08026f15   Thumb Code    12  _rserrno.o(.text)
    __aeabi_errno_addr                       0x08026f21   Thumb Code     8  rt_errno_addr_intlibspace.o(.text)
    __errno$intlibspace                      0x08026f21   Thumb Code     0  rt_errno_addr_intlibspace.o(.text)
    __rt_errno_addr$intlibspace              0x08026f21   Thumb Code     0  rt_errno_addr_intlibspace.o(.text)
    __user_libspace                          0x08026f29   Thumb Code     8  libspace.o(.text)
    __user_perproc_libspace                  0x08026f29   Thumb Code     0  libspace.o(.text)
    __user_perthread_libspace                0x08026f29   Thumb Code     0  libspace.o(.text)
    __user_setup_stackheap                   0x08026f31   Thumb Code    74  sys_stackheap_outer.o(.text)
    exit                                     0x08026f7b   Thumb Code    18  exit.o(.text)
    _sys_exit                                0x08026f8d   Thumb Code     8  sys_exit.o(.text)
    __I$use$semihosting                      0x08026f99   Thumb Code     0  use_no_semi.o(.text)
    __use_no_semihosting_swi                 0x08026f99   Thumb Code     2  use_no_semi.o(.text)
    __ARM_fpclassify                         0x08026f9b   Thumb Code    48  fpclassify.o(i.__ARM_fpclassify)
    __semihosting_library_function           0x08026f9b   Thumb Code     0  indicate_semi.o(.text)
    __ARM_fpclassifyf                        0x08026fcb   Thumb Code    38  fpclassifyf.o(i.__ARM_fpclassifyf)
    __hardfp_asin                            0x08026ff1   Thumb Code   770  asin.o(i.__hardfp_asin)
    __hardfp_asinf                           0x08027351   Thumb Code   258  asinf.o(i.__hardfp_asinf)
    __hardfp_atan                            0x08027481   Thumb Code   622  atan.o(i.__hardfp_atan)
    __hardfp_atan2                           0x08027759   Thumb Code   432  atan2.o(i.__hardfp_atan2)
    __hardfp_atan2f                          0x08027949   Thumb Code   502  atan2f.o(i.__hardfp_atan2f)
    __hardfp_cos                             0x08027b99   Thumb Code   180  cos.o(i.__hardfp_cos)
    __hardfp_cosf                            0x08027c61   Thumb Code   280  cosf.o(i.__hardfp_cosf)
    __hardfp_fabs                            0x08027db1   Thumb Code    20  fabs.o(i.__hardfp_fabs)
    __hardfp_floor                           0x08027dc9   Thumb Code   252  floor.o(i.__hardfp_floor)
    __hardfp_pow                             0x08027ee1   Thumb Code  3072  pow.o(i.__hardfp_pow)
    __hardfp_sin                             0x08028b31   Thumb Code   180  sin.o(i.__hardfp_sin)
    __hardfp_sinf                            0x08028bf9   Thumb Code   344  sinf.o(i.__hardfp_sinf)
    __hardfp_sqrt                            0x08028d89   Thumb Code   122  sqrt.o(i.__hardfp_sqrt)
    __hardfp_sqrtf                           0x08028e03   Thumb Code    58  sqrtf.o(i.__hardfp_sqrtf)
    __ieee754_rem_pio2                       0x08028e41   Thumb Code   938  rred.o(i.__ieee754_rem_pio2)
    __kernel_cos                             0x08029279   Thumb Code   322  cos_i.o(i.__kernel_cos)
    __kernel_poly                            0x080293e9   Thumb Code   248  poly.o(i.__kernel_poly)
    __kernel_sin                             0x080294e1   Thumb Code   280  sin_i.o(i.__kernel_sin)
    __mathlib_dbl_divzero                    0x08029611   Thumb Code    28  dunder.o(i.__mathlib_dbl_divzero)
    __mathlib_dbl_infnan                     0x08029641   Thumb Code    20  dunder.o(i.__mathlib_dbl_infnan)
    __mathlib_dbl_infnan2                    0x08029655   Thumb Code    20  dunder.o(i.__mathlib_dbl_infnan2)
    __mathlib_dbl_invalid                    0x08029669   Thumb Code    24  dunder.o(i.__mathlib_dbl_invalid)
    __mathlib_dbl_overflow                   0x08029689   Thumb Code    24  dunder.o(i.__mathlib_dbl_overflow)
    __mathlib_dbl_underflow                  0x080296a9   Thumb Code    24  dunder.o(i.__mathlib_dbl_underflow)
    __mathlib_flt_infnan                     0x080296c9   Thumb Code     6  funder.o(i.__mathlib_flt_infnan)
    __mathlib_flt_infnan2                    0x080296cf   Thumb Code     6  funder.o(i.__mathlib_flt_infnan2)
    __mathlib_flt_invalid                    0x080296d5   Thumb Code    10  funder.o(i.__mathlib_flt_invalid)
    __mathlib_flt_underflow                  0x080296e5   Thumb Code    10  funder.o(i.__mathlib_flt_underflow)
    __mathlib_rredf2                         0x080296f5   Thumb Code   316  rredf.o(i.__mathlib_rredf2)
    atan                                     0x08029849   Thumb Code    16  atan.o(i.atan)
    fabs                                     0x08029859   Thumb Code    24  fabs.o(i.fabs)
    sqrt                                     0x08029871   Thumb Code   110  sqrt.o(i.sqrt)
    sqrtf                                    0x080298df   Thumb Code    62  sqrtf.o(i.sqrtf)
    __aeabi_dneg                             0x0802991d   Thumb Code     0  basic.o(x$fpl$basic)
    _dneg                                    0x0802991d   Thumb Code     6  basic.o(x$fpl$basic)
    __aeabi_fneg                             0x08029923   Thumb Code     0  basic.o(x$fpl$basic)
    _fneg                                    0x08029923   Thumb Code     6  basic.o(x$fpl$basic)
    _dabs                                    0x08029929   Thumb Code     6  basic.o(x$fpl$basic)
    _fabs                                    0x0802992f   Thumb Code     6  basic.o(x$fpl$basic)
    __aeabi_d2f                              0x08029935   Thumb Code     0  d2f.o(x$fpl$d2f)
    _d2f                                     0x08029935   Thumb Code    98  d2f.o(x$fpl$d2f)
    __aeabi_dadd                             0x08029999   Thumb Code     0  daddsub_clz.o(x$fpl$dadd)
    _dadd                                    0x08029999   Thumb Code   332  daddsub_clz.o(x$fpl$dadd)
    __fpl_dcheck_NaN1                        0x08029ae9   Thumb Code    10  dcheck1.o(x$fpl$dcheck1)
    __fpl_dcmp_Inf                           0x08029af9   Thumb Code    24  dcmpi.o(x$fpl$dcmpinf)
    __aeabi_ddiv                             0x08029b11   Thumb Code     0  ddiv.o(x$fpl$ddiv)
    _ddiv                                    0x08029b11   Thumb Code   552  ddiv.o(x$fpl$ddiv)
    __aeabi_cdcmpeq                          0x08029dc1   Thumb Code     0  deqf.o(x$fpl$deqf)
    _dcmpeq                                  0x08029dc1   Thumb Code   120  deqf.o(x$fpl$deqf)
    __aeabi_d2iz                             0x08029e39   Thumb Code     0  dfix.o(x$fpl$dfix)
    _dfix                                    0x08029e39   Thumb Code    94  dfix.o(x$fpl$dfix)
    __aeabi_i2d                              0x08029e97   Thumb Code     0  dflt_clz.o(x$fpl$dflt)
    _dflt                                    0x08029e97   Thumb Code    46  dflt_clz.o(x$fpl$dflt)
    __aeabi_ui2d                             0x08029ec5   Thumb Code     0  dflt_clz.o(x$fpl$dfltu)
    _dfltu                                   0x08029ec5   Thumb Code    38  dflt_clz.o(x$fpl$dfltu)
    __aeabi_cdcmple                          0x08029eed   Thumb Code     0  dleqf.o(x$fpl$dleqf)
    _dcmple                                  0x08029eed   Thumb Code   120  dleqf.o(x$fpl$dleqf)
    __fpl_dcmple_InfNaN                      0x08029f4f   Thumb Code     0  dleqf.o(x$fpl$dleqf)
    __aeabi_dmul                             0x08029f65   Thumb Code     0  dmul.o(x$fpl$dmul)
    _dmul                                    0x08029f65   Thumb Code   332  dmul.o(x$fpl$dmul)
    __fpl_dnaninf                            0x0802a0b9   Thumb Code   156  dnaninf.o(x$fpl$dnaninf)
    __fpl_dretinf                            0x0802a155   Thumb Code    12  dretinf.o(x$fpl$dretinf)
    __aeabi_cdrcmple                         0x0802a161   Thumb Code     0  drleqf.o(x$fpl$drleqf)
    _drcmple                                 0x0802a161   Thumb Code   108  drleqf.o(x$fpl$drleqf)
    __aeabi_drsub                            0x0802a1cd   Thumb Code     0  daddsub_clz.o(x$fpl$drsb)
    _drsb                                    0x0802a1cd   Thumb Code    22  daddsub_clz.o(x$fpl$drsb)
    _dsqrt                                   0x0802a1e5   Thumb Code   404  dsqrt_umaal.o(x$fpl$dsqrt)
    __aeabi_dsub                             0x0802a37d   Thumb Code     0  daddsub_clz.o(x$fpl$dsub)
    _dsub                                    0x0802a37d   Thumb Code   464  daddsub_clz.o(x$fpl$dsub)
    __aeabi_f2d                              0x0802a551   Thumb Code     0  f2d.o(x$fpl$f2d)
    _f2d                                     0x0802a551   Thumb Code    86  f2d.o(x$fpl$f2d)
    __aeabi_ul2f                             0x0802a5a7   Thumb Code     0  ffltll_clz.o(x$fpl$ffltll)
    _ll_uto_f                                0x0802a5a7   Thumb Code     6  ffltll_clz.o(x$fpl$ffltll)
    __aeabi_l2f                              0x0802a5ad   Thumb Code     0  ffltll_clz.o(x$fpl$ffltll)
    _ll_sto_f                                0x0802a5ad   Thumb Code    90  ffltll_clz.o(x$fpl$ffltll)
    __fpl_fnaninf                            0x0802a607   Thumb Code   140  fnaninf.o(x$fpl$fnaninf)
    _fp_init                                 0x0802a693   Thumb Code    10  fpinit.o(x$fpl$fpinit)
    __fplib_config_fpu_vfp                   0x0802a69b   Thumb Code     0  fpinit.o(x$fpl$fpinit)
    __fplib_config_pureend_doubles           0x0802a69b   Thumb Code     0  fpinit.o(x$fpl$fpinit)
    __fpl_fretinf                            0x0802a69d   Thumb Code    10  fretinf.o(x$fpl$fretinf)
    __fpl_return_NaN                         0x0802a6a7   Thumb Code   100  retnan.o(x$fpl$retnan)
    __ARM_scalbn                             0x0802a70b   Thumb Code    92  scalbn.o(x$fpl$scalbn)
    __fpl_cmpreturn                          0x0802a767   Thumb Code    48  trapv.o(x$fpl$trapveneer)
    __I$use$fp                               0x0802a796   Number         0  usenofp.o(x$fpl$usenofp)
    sinTable                                 0x0802a7e0   Data        2052  fastmath.o(.constdata)
    __mathlib_zero                           0x0802b2c8   Data           8  qnan.o(.constdata)
    Region$$Table$$Base                      0x0802b3e0   Number         0  anon$$obj.o(Region$$Table)
    Region$$Table$$Limit                     0x0802b400   Number         0  anon$$obj.o(Region$$Table)
    loop_cnt                                 0x20000000   Data           2  scheduler.o(.data)
    yaw_use_fc                               0x20000002   Data           1  scheduler.o(.data)
    inner_loop_time                          0x20000004   Data           4  scheduler.o(.data)
    inner_loop_time_yaw                      0x20000008   Data           4  scheduler.o(.data)
    Rol_fc1                                  0x2000000c   Data           4  scheduler.o(.data)
    Pit_fc1                                  0x20000010   Data           4  scheduler.o(.data)
    Yaw_fc1                                  0x20000014   Data           4  scheduler.o(.data)
    outer_loop_time                          0x20000018   Data           4  scheduler.o(.data)
    pos_time                                 0x2000001c   Data           4  scheduler.o(.data)
    baro_task_time                           0x20000020   Data           4  scheduler.o(.data)
    UART_UP_LOAD_SEL                         0x20000024   Data           1  scheduler.o(.data)
    UART_UP_LOAD_SEL_FORCE                   0x20000025   Data           1  scheduler.o(.data)
    force_flow_ble_debug                     0x20000026   Data           1  scheduler.o(.data)
    mcuID                                    0x20000037   Data           3  init.o(.data)
    ble_imu_force                            0x2000003a   Data           1  init.o(.data)
    flash_init_error                         0x2000003c   Data           1  parameter.o(.data)
    k_pid                                    0x20000040   Data           4  parameter.o(.data)
    k_sensitivity                            0x20000044   Data           4  parameter.o(.data)
    ero                                      0x20000048   Data           6  fly_mode.o(.data)
    mode_state                               0x2000004e   Data           1  fly_mode.o(.data)
    mode_state_old                           0x2000004f   Data           1  fly_mode.o(.data)
    Init_Finish                              0x20000050   Data           1  main.o(.data)
    motor_cal                                0x20000052   Data           1  pwm_out.o(.data)
    BEEP_RATE                                0x20000054   Data           2  pwm_out.o(.data)
    PMW_T                                    0x20000056   Data           1  pwm_out.o(.data)
    CH_out_Mapping                           0x20000057   Data           8  pwm_out.o(.data)
    sel                                      0x2000005f   Data           1  pwm_out.o(.data)
    I2C_FastMode                             0x20000060   Data           1  i2c_soft.o(.data)
    W25QXX_TYPE                              0x20000064   Data           2  flash.o(.data)
    FLASH_SIZE                               0x20000068   Data           4  flash.o(.data)
    LENGTH_OF_DRONE                          0x2000006c   Data           2  flash.o(.data)
    SONAR_HEIGHT                             0x20000070   Data           4  flash.o(.data)
    sysTickUptime                            0x20000074   Data           4  time.o(.data)
    time_1h                                  0x20000078   Data           4  time.o(.data)
    time_1m                                  0x2000007c   Data           4  time.o(.data)
    time_1s                                  0x20000080   Data           4  time.o(.data)
    time_1ms                                 0x20000084   Data           4  time.o(.data)
    SystemCoreClock                          0x2000009c   Data           4  system_stm32f4xx.o(.data)
    AHBPrescTable                            0x200000a0   Data          16  system_stm32f4xx.o(.data)
    Roll                                     0x200000b0   Data           4  imu.o(.data)
    Pitch                                    0x200000b4   Data           4  imu.o(.data)
    Yaw                                      0x200000b8   Data           4  imu.o(.data)
    Roll_mid_down                            0x200000bc   Data           4  imu.o(.data)
    Pitch_mid_down                           0x200000c0   Data           4  imu.o(.data)
    Yaw_mid_down                             0x200000c4   Data           4  imu.o(.data)
    Rol_fc                                   0x200000c8   Data           4  imu.o(.data)
    Pit_fc                                   0x200000cc   Data           4  imu.o(.data)
    Yaw_fc                                   0x200000d0   Data           4  imu.o(.data)
    ref_q                                    0x200000d4   Data          16  imu.o(.data)
    norm_acc                                 0x200000e4   Data           4  imu.o(.data)
    norm_q                                   0x200000e8   Data           4  imu.o(.data)
    norm_acc_lpf                             0x200000ec   Data           4  imu.o(.data)
    mag_norm                                 0x200000f0   Data           4  imu.o(.data)
    mag_norm_xyz                             0x200000f4   Data           4  imu.o(.data)
    acc_ng_cali                              0x200000f8   Data           1  imu.o(.data)
    yaw_mag                                  0x200000fc   Data           4  imu.o(.data)
    Yaw_fc_q                                 0x20000100   Data           4  imu.o(.data)
    beta                                     0x20000104   Data           4  imu.o(.data)
    q0_m_fc                                  0x20000108   Data           4  imu.o(.data)
    q1_m_fc                                  0x2000010c   Data           4  imu.o(.data)
    q2_m_fc                                  0x20000110   Data           4  imu.o(.data)
    q3_m_fc                                  0x20000114   Data           4  imu.o(.data)
    q0_fc                                    0x20000118   Data           4  imu.o(.data)
    q1_fc                                    0x2000011c   Data           4  imu.o(.data)
    q2_fc                                    0x20000120   Data           4  imu.o(.data)
    q3_fc                                    0x20000124   Data           4  imu.o(.data)
    ref_q_imd_down_fc                        0x20000128   Data          16  imu.o(.data)
    init_q                                   0x20000138   Data           1  imu.o(.data)
    Mag_P                                    0x2000013c   Data           4  imu.o(.data)
    Mag_R                                    0x20000140   Data           4  imu.o(.data)
    Mag_Y                                    0x20000144   Data           4  imu.o(.data)
    exAcc                                    0x20000148   Data           4  imu.o(.data)
    eyAcc                                    0x2000014c   Data           4  imu.o(.data)
    ezAcc                                    0x20000150   Data           4  imu.o(.data)
    exAccInt                                 0x20000154   Data           4  imu.o(.data)
    eyAccInt                                 0x20000158   Data           4  imu.o(.data)
    ezAccInt                                 0x2000015c   Data           4  imu.o(.data)
    exMag                                    0x20000160   Data           4  imu.o(.data)
    eyMag                                    0x20000164   Data           4  imu.o(.data)
    ezMag                                    0x20000168   Data           4  imu.o(.data)
    exMagInt                                 0x2000016c   Data           4  imu.o(.data)
    eyMagInt                                 0x20000170   Data           4  imu.o(.data)
    ezMagInt                                 0x20000174   Data           4  imu.o(.data)
    kpAcc                                    0x20000178   Data           4  imu.o(.data)
    kiAcc                                    0x2000017c   Data           4  imu.o(.data)
    q0                                       0x20000180   Data           4  imu.o(.data)
    q1                                       0x20000184   Data           4  imu.o(.data)
    q2                                       0x20000188   Data           4  imu.o(.data)
    q3                                       0x2000018c   Data           4  imu.o(.data)
    q0q0                                     0x20000190   Data           4  imu.o(.data)
    q0q1                                     0x20000194   Data           4  imu.o(.data)
    q0q2                                     0x20000198   Data           4  imu.o(.data)
    q0q3                                     0x2000019c   Data           4  imu.o(.data)
    q1q1                                     0x200001a0   Data           4  imu.o(.data)
    q1q2                                     0x200001a4   Data           4  imu.o(.data)
    q1q3                                     0x200001a8   Data           4  imu.o(.data)
    q2q2                                     0x200001ac   Data           4  imu.o(.data)
    q2q3                                     0x200001b0   Data           4  imu.o(.data)
    q3q3                                     0x200001b4   Data           4  imu.o(.data)
    halfT                                    0x200001b8   Data           4  imu.o(.data)
    MargAHRSinitialized                      0x200001bc   Data           1  imu.o(.data)
    KpAcc                                    0x200001c0   Data           4  imu.o(.data)
    KiAcc                                    0x200001c4   Data           4  imu.o(.data)
    KpMag                                    0x200001c8   Data           4  imu.o(.data)
    KiMag                                    0x200001cc   Data           4  imu.o(.data)
    accConfidenceDecay                       0x200001d0   Data           4  imu.o(.data)
    accConfidence                            0x200001d4   Data           4  imu.o(.data)
    ALT_POS_BMP                              0x200001e8   Data           4  alt_fushion.o(.data)
    ALT_VEL_BMP                              0x200001ec   Data           4  alt_fushion.o(.data)
    ALT_POS_SONAR                            0x200001f0   Data           4  alt_fushion.o(.data)
    ALT_VEL_SONAR                            0x200001f4   Data           4  alt_fushion.o(.data)
    ALT_POS_SONAR2                           0x200001f8   Data           4  alt_fushion.o(.data)
    ALT_POS_SONAR3                           0x200001fc   Data           4  alt_fushion.o(.data)
    ALT_POS_BMP_EKF                          0x20000200   Data           4  alt_fushion.o(.data)
    ALT_VEL_BMP_EKF                          0x20000204   Data           4  alt_fushion.o(.data)
    ALT_POS_BMP_UKF_OLDX                     0x20000208   Data           4  alt_fushion.o(.data)
    ALT_VEL_BMP_UKF_OLDX                     0x2000020c   Data           4  alt_fushion.o(.data)
    ALT_ACC_BMP_UKF_OLDX                     0x20000210   Data           4  alt_fushion.o(.data)
    P_baro                                   0x20000218   Data          72  alt_fushion.o(.data)
    P_barob                                  0x20000260   Data         128  alt_fushion.o(.data)
    gh                                       0x200002e0   Data           4  alt_fushion.o(.data)
    ga                                       0x200002e4   Data           4  alt_fushion.o(.data)
    gwa                                      0x200002e8   Data           4  alt_fushion.o(.data)
    P_kf_baro                                0x200002f0   Data          72  alt_fushion.o(.data)
    r_baro_ukf                               0x20000338   Data          16  alt_fushion.o(.data)
    q_baro_ukf                               0x20000348   Data          16  alt_fushion.o(.data)
    dead_accz                                0x20000358   Data           4  alt_fushion.o(.data)
    acc_off_baro                             0x2000035c   Data           4  alt_fushion.o(.data)
    acc_scale_bmp                            0x20000360   Data           4  alt_fushion.o(.data)
    k_flt_accz                               0x20000364   Data           4  alt_fushion.o(.data)
    acc_bmp                                  0x20000368   Data           4  alt_fushion.o(.data)
    X_apo_height                             0x2000036c   Data           8  alt_fushion.o(.data)
    P_apo_k_height                           0x20000374   Data          16  alt_fushion.o(.data)
    k_bais                                   0x20000384   Data           4  alt_fushion.o(.data)
    k_bais2                                  0x20000388   Data           4  alt_fushion.o(.data)
    r_baro                                   0x2000038c   Data           4  alt_fushion.o(.data)
    r_acc                                    0x20000390   Data           4  alt_fushion.o(.data)
    x_tst                                    0x20000394   Data           8  alt_fushion.o(.data)
    p_tst                                    0x2000039c   Data           8  alt_fushion.o(.data)
    kf_tst                                   0x200003a4   Data           8  alt_fushion.o(.data)
    k_acc_bais                               0x200003ac   Data           4  alt_fushion.o(.data)
    w_z_baro                                 0x200003b0   Data           4  alt_fushion.o(.data)
    w_acc_bias                               0x200003b4   Data           4  alt_fushion.o(.data)
    flag_ero                                 0x200003b8   Data           4  alt_fushion.o(.data)
    Alt_Offset_m1                            0x200003bc   Data           4  alt_fushion.o(.data)
    en_bias_fix                              0x200003c0   Data           4  alt_fushion.o(.data)
    flt_body_acc                             0x200003c4   Data           4  alt_fushion.o(.data)
    k_body_acc                               0x200003c8   Data           4  alt_fushion.o(.data)
    K_SONAR                                  0x200003cc   Data           4  alt_fushion.o(.data)
    acc_est                                  0x200003d0   Data           4  alt_fushion.o(.data)
    acc_est_imu                              0x200003d4   Data           4  alt_fushion.o(.data)
    fast_atan_table                          0x200003f4   Data        1028  mymath.o(.data)
    ACC_LOWPASS_TAU                          0x200007f8   Data           4  filter.o(.data)
    ACC_LOWPASS_SAMPLE_TIME                  0x200007fc   Data           4  filter.o(.data)
    ACC_LOWPASS_A                            0x20000800   Data           4  filter.o(.data)
    ACC_LOWPASS_GX1                          0x20000804   Data           4  filter.o(.data)
    ACC_LOWPASS_GX2                          0x20000808   Data           4  filter.o(.data)
    ACC_LOWPASS_GX3                          0x2000080c   Data           4  filter.o(.data)
    inner_set                                0x20000820   Data           4  ctrl.o(.data)
    en_h_inf                                 0x20000824   Data           1  ctrl.o(.data)
    k_rc_gyro_spd                            0x20000828   Data           4  ctrl.o(.data)
    thr_view                                 0x2000082c   Data           4  ctrl.o(.data)
    thr_value                                0x20000830   Data           4  ctrl.o(.data)
    Thr_Low                                  0x20000834   Data           1  ctrl.o(.data)
    Thr_Weight                               0x20000838   Data           4  ctrl.o(.data)
    force_Thr_low                            0x2000083c   Data           1  ctrl.o(.data)
    cnt_for_low                              0x2000083e   Data           2  ctrl.o(.data)
    motor_out                                0x20000840   Data           8  ctrl.o(.data)
    height_ctrl_mode                         0x20000858   Data           1  height_ctrl.o(.data)
    ultra_distance                           0x2000085c   Data           4  height_ctrl.o(.data)
    exp_height                               0x20000860   Data           4  height_ctrl.o(.data)
    set_height_e                             0x20000864   Data           4  height_ctrl.o(.data)
    set_height_em                            0x20000868   Data           4  height_ctrl.o(.data)
    set_speed_t                              0x2000086c   Data           4  height_ctrl.o(.data)
    set_speed                                0x20000870   Data           4  height_ctrl.o(.data)
    exp_speed                                0x20000874   Data           4  height_ctrl.o(.data)
    fb_speed                                 0x20000878   Data           4  height_ctrl.o(.data)
    exp_acc                                  0x2000087c   Data           4  height_ctrl.o(.data)
    fb_acc                                   0x20000880   Data           4  height_ctrl.o(.data)
    fb_speed_old                             0x20000884   Data           4  height_ctrl.o(.data)
    rng_time1                                0x20000888   Data           4  height_ctrl.o(.data)
    HOLD_THR                                 0x2000088c   Data           4  height_ctrl.o(.data)
    ALT_HOLD_THR_RANGE_SCALE                 0x20000890   Data           4  height_ctrl.o(.data)
    exp_spd_zv                               0x20000894   Data           4  height_ctrl.o(.data)
    thr_use                                  0x20000898   Data           4  height_ctrl.o(.data)
    thr_in_view                              0x2000089c   Data           4  height_ctrl.o(.data)
    exp_height_speed                         0x200008a0   Data           4  height_ctrl.o(.data)
    exp_height_speed_safe                    0x200008a4   Data           4  height_ctrl.o(.data)
    exp_height_safe                          0x200008a8   Data           4  height_ctrl.o(.data)
    ultra_speed                              0x200008ac   Data           4  height_ctrl.o(.data)
    ultra_speed_safe                         0x200008b0   Data           4  height_ctrl.o(.data)
    ultra_dis_lpf                            0x200008b4   Data           4  height_ctrl.o(.data)
    ultra_dis_lpf_safe                       0x200008b8   Data           4  height_ctrl.o(.data)
    ultra_ctrl_out_safe                      0x200008bc   Data           4  height_ctrl.o(.data)
    ultra_ctrl_out                           0x200008c0   Data           4  height_ctrl.o(.data)
    ultra_ctrl_out_use                       0x200008c4   Data           4  height_ctrl.o(.data)
    baro_speed_ano                           0x200008c8   Data           4  height_ctrl.o(.data)
    height_ctrl_out                          0x200008cc   Data           4  height_ctrl.o(.data)
    wz_acc                                   0x200008d0   Data           4  height_ctrl.o(.data)
    adrc_out                                 0x200008d4   Data           4  height_ctrl.o(.data)
    baro_cnt                                 0x200008d8   Data           4  height_ctrl.o(.data)
    switch_r                                 0x200008dc   Data           1  height_ctrl.o(.data)
    wz_acc_ukf                               0x200008e0   Data           4  height_ctrl.o(.data)
    sonar_spd                                0x200008e4   Data           4  height_ctrl.o(.data)
    BARO_HIHG_NUM                            0x200008e8   Data           1  height_ctrl.o(.data)
    baro_h_cnt                               0x200008ea   Data           4  height_ctrl.o(.data)
    baro_h_cnt1                              0x200008ee   Data           4  height_ctrl.o(.data)
    k_temp                                   0x200008f4   Data           4  height_ctrl.o(.data)
    hs_ctrl_cnt_max                          0x200008f8   Data           2  height_ctrl.o(.data)
    hold_alt_flag                            0x200008fa   Data           1  height_ctrl.o(.data)
    out_timer_high                           0x200008fc   Data           4  height_ctrl.o(.data)
    in_timer_high                            0x20000900   Data           4  height_ctrl.o(.data)
    baro_only_move                           0x20000904   Data           4  height_ctrl.o(.data)
    baro_only_move_flt                       0x20000908   Data           4  height_ctrl.o(.data)
    ano_temp                                 0x2000090c   Data           4  height_ctrl.o(.data)
    k_acc_ukf                                0x20000910   Data           4  height_ctrl.o(.data)
    mid_usp                                  0x20000914   Data           1  height_ctrl.o(.data)
    EN_TUO_ACC_FIX_H                         0x20000915   Data           1  height_ctrl.o(.data)
    off_inner                                0x20000918   Data           4  height_ctrl.o(.data)
    wz_acc_ukf1                              0x2000091c   Data           4  height_ctrl.o(.data)
    wz_acc1                                  0x20000920   Data           4  height_ctrl.o(.data)
    ultra_speed_bmp                          0x20000924   Data           4  height_ctrl.o(.data)
    tilted_fix1                              0x20000928   Data           4  height_ctrl.o(.data)
    k_d                                      0x2000092c   Data           4  height_ctrl.o(.data)
    p1                                       0x20000930   Data           4  height_ctrl.o(.data)
    p2                                       0x20000934   Data           4  height_ctrl.o(.data)
    speed_ctrl_sel                           0x20000938   Data           1  height_ctrl.o(.data)
    speed_spd_sel                            0x20000939   Data           1  height_ctrl.o(.data)
    wz_speed_old                             0x2000093c   Data           4  height_ctrl.o(.data)
    wz_acc_mms2                              0x20000940   Data           4  height_ctrl.o(.data)
    height_thrv                              0x20000944   Data           4  height_ctrl.o(.data)
    wz_speed_pid_v_view                      0x20000948   Data           4  height_ctrl.o(.data)
    wz_speed_pid_v_view_eso                  0x2000094c   Data           4  height_ctrl.o(.data)
    d_view                                   0x20000950   Data           4  height_ctrl.o(.data)
    ero_view                                 0x20000954   Data           8  height_ctrl.o(.data)
    baro_ctrl_start                          0x2000095c   Data           1  height_ctrl.o(.data)
    baro_height                              0x20000960   Data           4  height_ctrl.o(.data)
    ultra_sp_test                            0x20000964   Data           8  height_ctrl.o(.data)
    k_dh                                     0x2000096c   Data           4  height_ctrl.o(.data)
    nav_circle                               0x200009c0   Data           8  pos_ctrl.o(.data)
    nav_circle_last                          0x200009c8   Data           8  pos_ctrl.o(.data)
    circle_check                             0x200009d0   Data           4  pos_ctrl.o(.data)
    circle_lfp                               0x200009d4   Data           4  pos_ctrl.o(.data)
    k_back_step                              0x200009d8   Data           4  pos_ctrl.o(.data)
    nav                                      0x200009dc   Data           8  pos_ctrl.o(.data)
    GPS_angle                                0x200009e4   Data           8  pos_ctrl.o(.data)
    target_position                          0x200009ec   Data           8  pos_ctrl.o(.data)
    now_position                             0x200009f4   Data           8  pos_ctrl.o(.data)
    actual_speed                             0x200009fc   Data           8  pos_ctrl.o(.data)
    tar_speed                                0x20000a04   Data           8  pos_ctrl.o(.data)
    tar_speed_avoidc                         0x20000a0c   Data           8  pos_ctrl.o(.data)
    d_flow_watch                             0x20000a14   Data           8  pos_ctrl.o(.data)
    integrator                               0x20000a1c   Data           8  pos_ctrl.o(.data)
    k_break                                  0x20000a24   Data           4  pos_ctrl.o(.data)
    k_flt_break                              0x20000a28   Data           4  pos_ctrl.o(.data)
    cnt_sb_sample_max                        0x20000a2c   Data           1  pos_ctrl.o(.data)
    scale_flow_rc                            0x20000a30   Data           4  pos_ctrl.o(.data)
    r_circle                                 0x20000a34   Data           4  pos_ctrl.o(.data)
    d_angle                                  0x20000a38   Data           4  pos_ctrl.o(.data)
    circle_angle                             0x20000a3c   Data           4  pos_ctrl.o(.data)
    exp_center_cycle                         0x20000a40   Data          20  pos_ctrl.o(.data)
    line_test_num                            0x20000a54   Data           2  pos_ctrl.o(.data)
    tan_test_num                             0x20000a56   Data           4  pos_ctrl.o(.data)
    pos_exp_test                             0x20000a5a   Data           1  pos_ctrl.o(.data)
    yaw_qr_off                               0x20000a5c   Data           4  pos_ctrl.o(.data)
    out_timer_nav                            0x20000a60   Data           4  pos_ctrl.o(.data)
    in_timer_nav                             0x20000a64   Data           4  pos_ctrl.o(.data)
    mode_change                              0x20000a68   Data           1  pos_ctrl.o(.data)
    state_v                                  0x20000a69   Data           1  pos_ctrl.o(.data)
    force_pass                               0x20000a6a   Data           1  pos_ctrl.o(.data)
    AUTO_UP_CUARVE                           0x20000a6c   Data          18  pos_ctrl.o(.data)
    AUTO_DOWN_CUARVE                         0x20000a7e   Data          12  pos_ctrl.o(.data)
    AUTO_DOWN_CUARVE1                        0x20000a8a   Data          12  pos_ctrl.o(.data)
    dt_flow_rx                               0x20000ae8   Data           4  usart.o(.data)
    data_rate_gol_link                       0x20000aec   Data           2  usart.o(.data)
    LOCK                                     0x20000aee   Data           1  usart.o(.data)
    KEY                                      0x20000aef   Data           8  usart.o(.data)
    KEY_SEL                                  0x20000af7   Data           4  usart.o(.data)
    NAV_BOARD_CONNECT                        0x20000afb   Data           1  usart.o(.data)
    imu_loss_cnt                             0x20000afc   Data           4  usart.o(.data)
    baro_matlab_data                         0x20000b00   Data           8  usart.o(.data)
    POS_UKF_X                                0x20000b08   Data           4  usart.o(.data)
    POS_UKF_Y                                0x20000b0c   Data           4  usart.o(.data)
    VEL_UKF_X                                0x20000b10   Data           4  usart.o(.data)
    VEL_UKF_Y                                0x20000b14   Data           4  usart.o(.data)
    k_scale_pix                              0x20000b18   Data           4  usart.o(.data)
    pos_kf_state                             0x20000b1c   Data           3  usart.o(.data)
    TxCounter                                0x20000b1f   Data           1  usart.o(.data)
    count                                    0x20000b20   Data           1  usart.o(.data)
    RxState                                  0x20000b21   Data           1  usart.o(.data)
    RxBufferNum                              0x20000b22   Data           1  usart.o(.data)
    RxBufferCnt                              0x20000b23   Data           1  usart.o(.data)
    RxLen                                    0x20000b24   Data           1  usart.o(.data)
    com_data                                 0x20000b25   Data           1  usart.o(.data)
    PWM_DJI                                  0x20000b28   Data           8  usart.o(.data)
    TxCounter5                               0x20000b30   Data           1  usart.o(.data)
    count5                                   0x20000b31   Data           1  usart.o(.data)
    RxState5                                 0x20000b32   Data           1  usart.o(.data)
    RxBufferNum5                             0x20000b33   Data           1  usart.o(.data)
    RxBufferCnt5                             0x20000b34   Data           1  usart.o(.data)
    RxLen5                                   0x20000b35   Data           1  usart.o(.data)
    BLE_UP1                                  0x20000b38   Data          20  usart.o(.data)
    BLE_TEST                                 0x20000b4c   Data          20  usart.o(.data)
    BLE_BAUD                                 0x20000b60   Data          20  usart.o(.data)
    BLE_RENEW                                0x20000b74   Data          20  usart.o(.data)
    BLE_RATE                                 0x20000b88   Data          20  usart.o(.data)
    SET_PIN                                  0x20000b9c   Data          20  usart.o(.data)
    app_connect_fc_loss                      0x20000bb0   Data           4  usart.o(.data)
    app_connect_fc                           0x20000bb4   Data           1  usart.o(.data)
    lock_tx                                  0x20000bb5   Data           1  usart.o(.data)
    RxState_app                              0x20000bb6   Data           1  usart.o(.data)
    RxBufferNum_app                          0x20000bb7   Data           1  usart.o(.data)
    RxBufferCnt_app                          0x20000bb8   Data           1  usart.o(.data)
    RxLen_app                                0x20000bb9   Data           1  usart.o(.data)
    time_rc                                  0x20000bbc   Data           4  usart.o(.data)
    rc_board_connect                         0x20000bc0   Data           1  usart.o(.data)
    rc_board_connect_lose_cnt                0x20000bc2   Data           2  usart.o(.data)
    RxState4                                 0x20000bc4   Data           1  usart.o(.data)
    RxBufferNum4                             0x20000bc5   Data           1  usart.o(.data)
    RxBufferCnt4                             0x20000bc6   Data           1  usart.o(.data)
    RxLen4                                   0x20000bc7   Data           1  usart.o(.data)
    rate_gps_board                           0x20000bcc   Data           4  usart.o(.data)
    RxState3                                 0x20000bd0   Data           1  usart.o(.data)
    RxBufferNum3                             0x20000bd1   Data           1  usart.o(.data)
    RxBufferCnt3                             0x20000bd2   Data           1  usart.o(.data)
    RxLen3                                   0x20000bd3   Data           1  usart.o(.data)
    Angle_Yun                                0x20000bd8   Data           8  usart.o(.data)
    SendBuff1_cnt                            0x20000be0   Data           1  usart.o(.data)
    nrf_uart_cnt                             0x20000be2   Data           2  usart.o(.data)
    sd_pub_sel                               0x20000be4   Data           1  usart.o(.data)
    checkdata_to_send                        0x20000c0c   Data           1  data_transfer.o(.data)
    checksum_to_send                         0x20000c0d   Data           1  data_transfer.o(.data)
    fly_mode                                 0x20000c0e   Data           1  data_transfer.o(.data)
    off_flow_pos                             0x20000c10   Data           8  data_transfer.o(.data)
    flash_save_en_cnt                        0x20000c18   Data           2  data_transfer.o(.data)
    CH_in_Mapping                            0x20000c34   Data           8  rc.o(.data)
    rc_lose                                  0x20000c3c   Data           1  rc.o(.data)
    NS                                       0x20000c3d   Data           1  rc.o(.data)
    CH_Error                                 0x20000c3e   Data           8  rc.o(.data)
    NS_cnt                                   0x20000c46   Data           2  rc.o(.data)
    MAX_CH                                   0x20000c48   Data          16  rc.o(.data)
    MIN_CH                                   0x20000c58   Data          16  rc.o(.data)
    CH_DIR                                   0x20000c68   Data           8  rc.o(.data)
    filter_A                                 0x20000c70   Data           4  rc.o(.data)
    fly_ready                                0x20000c74   Data           1  rc.o(.data)
    thr_stick_low                            0x20000c75   Data           1  rc.o(.data)
    ready_cnt                                0x20000c76   Data           2  rc.o(.data)
    mag_cali_cnt                             0x20000c78   Data           2  rc.o(.data)
    locked_cnt                               0x20000c7a   Data           2  rc.o(.data)
    mpu6050_ok                               0x20000c7c   Data           1  mpu6050.o(.data)
    acc_sum_cnt                              0x20000c7e   Data           2  mpu6050.o(.data)
    gyro_sum_cnt                             0x20000c80   Data           2  mpu6050.o(.data)
    filter_cnt                               0x20000c82   Data           1  mpu6050.o(.data)
    filter_cnt_old                           0x20000c83   Data           1  mpu6050.o(.data)
    test_ang                                 0x20000c84   Data           4  mpu6050.o(.data)
    test_ang_old                             0x20000c88   Data           4  mpu6050.o(.data)
    test_ang_d                               0x20000c8c   Data           4  mpu6050.o(.data)
    test_fli_a                               0x20000c90   Data           4  mpu6050.o(.data)
    test_i                                   0x20000c94   Data           4  mpu6050.o(.data)
    ak8975                                   0x20000c98   Data          48  ak8975.o(.data)
    ak8975_fc                                0x20000cc8   Data          48  ak8975.o(.data)
    ak8975_ok                                0x20000d48   Data           1  ak8975.o(.data)
    hml_fix                                  0x20000d49   Data           1  ak8975.o(.data)
    Mag_CALIBRATED                           0x20000d4a   Data           1  ak8975.o(.data)
    Mag_CALIBRATED_R                         0x20000d4b   Data           1  ak8975.o(.data)
    HMC5883_lastx                            0x20000d4c   Data           4  ak8975.o(.data)
    HMC5883_lasty                            0x20000d50   Data           4  ak8975.o(.data)
    HMC5883_lastz                            0x20000d54   Data           4  ak8975.o(.data)
    HMC5883_maxx                             0x20000d58   Data           2  ak8975.o(.data)
    HMC5883_maxy                             0x20000d5a   Data           2  ak8975.o(.data)
    HMC5883_maxz                             0x20000d5c   Data           2  ak8975.o(.data)
    HMC5883_minx                             0x20000d5e   Data           2  ak8975.o(.data)
    HMC5883_miny                             0x20000d60   Data           2  ak8975.o(.data)
    HMC5883_minz                             0x20000d62   Data           2  ak8975.o(.data)
    MS5611_Temperature                       0x20000d98   Data           4  bmp.o(.data)
    MS5611_Pressure                          0x20000d9c   Data           4  bmp.o(.data)
    MS5611_Altitude                          0x20000da0   Data           4  bmp.o(.data)
    MS5611_VerticalSpeed                     0x20000da4   Data           4  bmp.o(.data)
    baro_alt_speed_ano                       0x20000da8   Data           4  bmp.o(.data)
    baroAlt                                  0x20000dac   Data           4  bmp.o(.data)
    baroAlt_fc                               0x20000db0   Data           4  bmp.o(.data)
    baro_set                                 0x20000db4   Data           1  bmp.o(.data)
    paOffsetNum                              0x20000dd0   Data           8  bmp.o(.data)
    paInitCnt                                0x20000dd8   Data           2  bmp.o(.data)
    paOffsetInited                           0x20000dda   Data           1  bmp.o(.data)
    Baro_ALT_Updated                         0x20000ddb   Data           1  bmp.o(.data)
    MS5611_Delay_us                          0x20000ddc   Data          36  bmp.o(.data)
    for_fly_ready                            0x20000e0e   Data           1  bmp.o(.data)
    angle_baro                               0x20000e10   Data           4  bmp.o(.data)
    ultra_start_f                            0x20000e28   Data           1  ultrasonic.o(.data)
    ultra_distance_old                       0x20000e2a   Data           2  ultrasonic.o(.data)
    measure_num                              0x20000e2c   Data           1  ultrasonic.o(.data)
    sonar_av_cnt                             0x20000e38   Data           2  anotc_baro_ctrl.o(.data)
    sonar_f_set                              0x20000e3c   Data          24  anotc_baro_ctrl.o(.data)
    baro_av_cnt                              0x20000e54   Data           2  anotc_baro_ctrl.o(.data)
    baro_f_set                               0x20000e58   Data          24  anotc_baro_ctrl.o(.data)
    sonar_weight                             0x20000e70   Data           4  anotc_baro_ctrl.o(.data)
    wz_speed                                 0x20000e74   Data           4  anotc_baro_ctrl.o(.data)
    baro_com_val                             0x20000e78   Data           4  anotc_baro_ctrl.o(.data)
    flt_eso                                  0x20000e84   Data           4  eso.o(.data)
    np                                       0x20000e88   Data           4  eso.o(.data)
    L1                                       0x20000e8c   Data           4  eso.o(.data)
    rtInf                                    0x20000ec8   Data           8  rt_nonfinite.o(.data)
    rtMinusInf                               0x20000ed0   Data           8  rt_nonfinite.o(.data)
    rtNaN                                    0x20000ed8   Data           8  rt_nonfinite.o(.data)
    rtInfF                                   0x20000ee0   Data           4  rt_nonfinite.o(.data)
    rtMinusInfF                              0x20000ee4   Data           4  rt_nonfinite.o(.data)
    rtNaNF                                   0x20000ee8   Data           4  rt_nonfinite.o(.data)
    Rc_Pwm_In                                0x20000eec   Data          16  scheduler.o(.bss)
    loop                                     0x20000efc   Data          16  scheduler.o(.bss)
    test                                     0x20000f0c   Data          20  scheduler.o(.bss)
    sensor_setup                             0x20000f20   Data          64  parameter.o(.bss)
    pid_setup                                0x20000f60   Data         192  parameter.o(.bss)
    mode_value                               0x20001020   Data          10  fly_mode.o(.bss)
    mode                                     0x2000102a   Data          86  fly_mode.o(.bss)
    W25QXX_BUFFER                            0x20001080   Data        4096  flash.o(.bss)
    FLASH_READ_BUF                           0x20002080   Data         100  flash.o(.bss)
    FLASH_Buffer                             0x200020e4   Data         100  flash.o(.bss)
    Cycle_T                                  0x20002148   Data         360  time.o(.bss)
    buf1                                     0x200022b0   Data          10  spi.o(.bss)
    reference_v                              0x200022bc   Data          12  imu.o(.bss)
    ref                                      0x200022c8   Data          60  imu.o(.bss)
    reference_vr_imd_down                    0x20002304   Data          12  imu.o(.bss)
    reference_vr                             0x20002310   Data          12  imu.o(.bss)
    q_nav                                    0x2000231c   Data          16  imu.o(.bss)
    ref_q_imd_down                           0x2000232c   Data          16  imu.o(.bss)
    mag_sim_3d                               0x2000233c   Data          12  imu.o(.bss)
    acc_3d_hg                                0x20002348   Data          12  imu.o(.bss)
    acc_ng                                   0x20002354   Data          12  imu.o(.bss)
    acc_ng_offset                            0x20002360   Data          12  imu.o(.bss)
    reference_vr_imd_down_fc                 0x2000236c   Data          12  imu.o(.bss)
    X_ukf_baro                               0x20002388   Data          24  alt_fushion.o(.bss)
    X_ukf_barob                              0x200023a0   Data          32  alt_fushion.o(.bss)
    X_kf_baro                                0x200023c0   Data          24  alt_fushion.o(.bss)
    acc_body                                 0x200023d8   Data          12  alt_fushion.o(.bss)
    acc_bias                                 0x200023e4   Data          12  alt_fushion.o(.bss)
    accel_bias_corr                          0x200023f0   Data          12  alt_fushion.o(.bss)
    eso_h_acc                                0x200023fc   Data         144  alt_fushion.o(.bss)
    eso_h_spd                                0x2000248c   Data         144  alt_fushion.o(.bss)
    firstOrderFilters                        0x20002654   Data         100  filter.o(.bss)
    e_R                                      0x200026b8   Data          12  quar.o(.bss)
    exp_angle                                0x200026c4   Data          12  quar.o(.bss)
    ero_angle_px4                            0x200026d0   Data          16  quar.o(.bss)
    angle_now                                0x200026e0   Data          12  quar.o(.bss)
    Q_control                                0x200026ec   Data          32  quar.o(.bss)
    R_control_set                            0x2000270c   Data          36  quar.o(.bss)
    R_control_ero                            0x20002730   Data          36  quar.o(.bss)
    R_control_now                            0x20002754   Data          36  quar.o(.bss)
    R_control_now_t                          0x20002778   Data          36  quar.o(.bss)
    ctrl_1                                   0x2000279c   Data         196  ctrl.o(.bss)
    ctrl_2                                   0x20002860   Data         196  ctrl.o(.bss)
    except_A                                 0x20002924   Data          12  ctrl.o(.bss)
    ctrl_angle_offset                        0x20002930   Data          12  ctrl.o(.bss)
    compensation                             0x2000293c   Data          12  ctrl.o(.bss)
    except_AS                                0x20002948   Data          12  ctrl.o(.bss)
    g_old                                    0x20002954   Data          28  ctrl.o(.bss)
    motor                                    0x20002970   Data          16  ctrl.o(.bss)
    posture_value                            0x20002980   Data          16  ctrl.o(.bss)
    curve                                    0x20002990   Data          16  ctrl.o(.bss)
    hc_value                                 0x200029a0   Data          24  height_ctrl.o(.bss)
    wz_speed_pid_v                           0x200029b8   Data          36  height_ctrl.o(.bss)
    wz_speed_pid_v_safe                      0x200029dc   Data          36  height_ctrl.o(.bss)
    wz_speed_pid_v_eso                       0x20002a00   Data          36  height_ctrl.o(.bss)
    ultra_ctrl                               0x20002a24   Data          36  height_ctrl.o(.bss)
    ultra_ctrl_safe                          0x20002a48   Data          36  height_ctrl.o(.bss)
    wz_speed_pid                             0x20002a6c   Data          16  height_ctrl.o(.bss)
    wz_speed_pid_safe                        0x20002a7c   Data          16  height_ctrl.o(.bss)
    wz_speed_pid_use                         0x20002a8c   Data          16  height_ctrl.o(.bss)
    ultra_pid_safe                           0x20002a9c   Data          16  height_ctrl.o(.bss)
    ultra_pid                                0x20002aac   Data          16  height_ctrl.o(.bss)
    ultra_pid_use                            0x20002abc   Data          16  height_ctrl.o(.bss)
    baro_speed_arr                           0x20002acc   Data         204  height_ctrl.o(.bss)
    baro_h_arr                               0x20002b98   Data         404  height_ctrl.o(.bss)
    baro_h_arr1                              0x20002d2c   Data         404  height_ctrl.o(.bss)
    circle                                   0x20002ec0   Data          92  pos_ctrl.o(.bss)
    track                                    0x20002f1c   Data          92  pos_ctrl.o(.bss)
    marker                                   0x20002f78   Data          76  pos_ctrl.o(.bss)
    out_back_step                            0x20002fc4   Data          12  pos_ctrl.o(.bss)
    acc_temp                                 0x20002fd0   Data          12  pos_ctrl.o(.bss)
    nav_pos_pid                              0x20002fdc   Data          28  pos_ctrl.o(.bss)
    nav_spd_pid                              0x20002ff8   Data          28  pos_ctrl.o(.bss)
    nav_acc_pid                              0x20003014   Data          28  pos_ctrl.o(.bss)
    nav_pos_ctrl                             0x20003030   Data          80  pos_ctrl.o(.bss)
    nav_spd_ctrl                             0x20003080   Data          80  pos_ctrl.o(.bss)
    nav_acc_ctrl                             0x200030d0   Data          80  pos_ctrl.o(.bss)
    DEBUG                                    0x20003134   Data         140  usart.o(.bss)
    BLE_DEBUG                                0x200031c0   Data          32  usart.o(.bss)
    m100                                     0x200031e0   Data         100  usart.o(.bss)
    color                                    0x20003244   Data          20  usart.o(.bss)
    HPID                                     0x20003258   Data          18  usart.o(.bss)
    SPID                                     0x2000326a   Data          18  usart.o(.bss)
    FIX_PID                                  0x2000327c   Data          18  usart.o(.bss)
    NAV_PID                                  0x2000328e   Data          18  usart.o(.bss)
    HPID_app                                 0x200032a0   Data          18  usart.o(.bss)
    SPID_app                                 0x200032b2   Data          18  usart.o(.bss)
    FIX_PID_app                              0x200032c4   Data          18  usart.o(.bss)
    NAV_PID_app                              0x200032d6   Data          18  usart.o(.bss)
    pid                                      0x200032e8   Data         320  usart.o(.bss)
    smart                                    0x20003428   Data          52  usart.o(.bss)
    smart_in                                 0x2000345c   Data          52  usart.o(.bss)
    Rc_Get                                   0x20003490   Data          26  usart.o(.bss)
    Rc_Get_PWM                               0x200034aa   Data          26  usart.o(.bss)
    plane                                    0x200034c4   Data         116  usart.o(.bss)
    slam                                     0x20003538   Data          20  usart.o(.bss)
    imu_nav                                  0x2000354c   Data         100  usart.o(.bss)
    flow_debug                               0x200035b0   Data          40  usart.o(.bss)
    flow_matlab_data                         0x200035d8   Data          16  usart.o(.bss)
    uart_time                                0x200035e8   Data          40  usart.o(.bss)
    TxBuffer                                 0x20003610   Data         256  usart.o(.bss)
    Rx_Buf                                   0x20003710   Data         256  usart.o(.bss)
    RxBuffer                                 0x20003810   Data          50  usart.o(.bss)
    imu_board                                0x20003844   Data          20  usart.o(.bss)
    mark_map                                 0x20003858   Data         200  usart.o(.bss)
    TxBuffer5                                0x20003920   Data         256  usart.o(.bss)
    Rx_Buf5                                  0x20003a20   Data         256  usart.o(.bss)
    RxBuffer5                                0x20003b20   Data          50  usart.o(.bss)
    Rx_Buf_app                               0x20003b52   Data         256  usart.o(.bss)
    RxBuffer_app                             0x20003c52   Data          50  usart.o(.bss)
    Rx_Buf4                                  0x20003c84   Data         256  usart.o(.bss)
    RxBuffer4                                0x20003d84   Data          50  usart.o(.bss)
    Rx_Buf3                                  0x20003db6   Data         256  usart.o(.bss)
    RxBuffer3                                0x20003eb6   Data          50  usart.o(.bss)
    SendBuff1                                0x20003ee8   Data          96  usart.o(.bss)
    SendBuff2                                0x20003f48   Data          40  usart.o(.bss)
    SendBuff3                                0x20003f70   Data          32  usart.o(.bss)
    SendBuff4                                0x20003f90   Data         192  usart.o(.bss)
    sd_save                                  0x20004050   Data         300  usart.o(.bss)
    f                                        0x2000417c   Data          21  data_transfer.o(.bss)
    data_to_send                             0x20004191   Data          50  data_transfer.o(.bss)
    RX_CH                                    0x20004200   Data          16  rc.o(.bss)
    CH                                       0x20004210   Data          16  rc.o(.bss)
    RX_CH_PWM                                0x20004220   Data          16  rc.o(.bss)
    RX_CH_FIX                                0x20004230   Data          16  rc.o(.bss)
    RX_CH_FIX_PWM                            0x20004240   Data          16  rc.o(.bss)
    CH_Old                                   0x20004250   Data          32  rc.o(.bss)
    CH_filter                                0x20004270   Data          32  rc.o(.bss)
    CH_filter_Old                            0x20004290   Data          32  rc.o(.bss)
    CH_filter_D                              0x200042b0   Data          32  rc.o(.bss)
    CLR_CH_Error                             0x200042d0   Data          16  rc.o(.bss)
    mpu6050                                  0x200042f0   Data         128  mpu6050.o(.bss)
    mpu6050_fc                               0x20004370   Data         128  mpu6050.o(.bss)
    mpu6050_buffer                           0x200043f0   Data          14  mpu6050.o(.bss)
    sum_temp                                 0x20004400   Data          28  mpu6050.o(.bss)
    FILT_BUF                                 0x2000441c   Data         154  mpu6050.o(.bss)
    mpu6050_tmp                              0x200044b8   Data          28  mpu6050.o(.bss)
    mpu_fil_tmp                              0x200044d4   Data          28  mpu6050.o(.bss)
    HMC5883_FIFO                             0x200045e0   Data          66  ak8975.o(.bss)
    baro                                     0x20004630   Data          48  bmp.o(.bss)
    ultra                                    0x2000466c   Data          48  ultrasonic.o(.bss)
    Distance                                 0x2000469c   Data         100  ultrasonic.o(.bss)
    sonar_av_arr                             0x2000470c   Data         200  anotc_baro_ctrl.o(.bss)
    sonar                                    0x200047d4   Data          24  anotc_baro_ctrl.o(.bss)
    sonar_fusion                             0x200047ec   Data          68  anotc_baro_ctrl.o(.bss)
    baro_av_arr                              0x20004830   Data         400  anotc_baro_ctrl.o(.bss)
    baro_p                                   0x200049c0   Data          24  anotc_baro_ctrl.o(.bss)
    baro_fusion                              0x200049d8   Data          68  anotc_baro_ctrl.o(.bss)
    eso_att_outter_c                         0x20004a1c   Data         576  eso.o(.bss)
    eso_att_inner_c                          0x20004c5c   Data         576  eso.o(.bss)
    eso_pos_spd                              0x20004e9c   Data         432  eso.o(.bss)
    eso_pos                                  0x2000504c   Data         432  eso.o(.bss)
    __libspace_start                         0x200051fc   Data          96  libspace.o(.bss)
    __temporary_stack_top$libspace           0x2000525c   Data           0  libspace.o(.bss)



==============================================================================

Memory Map of the image

  Image Entry point : 0x08000189

  Load Region LR_IROM1 (Base: 0x08000000, Size: 0x0002c2ec, Max: 0x00100000, ABSOLUTE, COMPRESSED[0x0002ba48])

    Execution Region ER_IROM1 (Base: 0x08000000, Size: 0x0002b400, Max: 0x00100000, ABSOLUTE)

    Base Addr    Size         Type   Attr      Idx    E Section Name        Object

    0x08000000   0x00000188   Data   RO          830    RESET               startup_stm32f4xx.o
    0x08000188   0x00000008   Code   RO         1532  * !!!main             c_w.l(__main.o)
    0x08000190   0x00000034   Code   RO         1981    !!!scatter          c_w.l(__scatter.o)
    0x080001c4   0x0000005a   Code   RO         1979    !!dczerorl2         c_w.l(__dczerorl2.o)
    0x0800021e   0x00000002   PAD
    0x08000220   0x0000001c   Code   RO         1983    !!handler_zi        c_w.l(__scatter_zi.o)
    0x0800023c   0x00000002   Code   RO         1844    .ARM.Collect$$libinit$$00000000  c_w.l(libinit.o)
    0x0800023e   0x00000004   Code   RO         1853    .ARM.Collect$$libinit$$00000001  c_w.l(libinit2.o)
    0x08000242   0x00000000   Code   RO         1856    .ARM.Collect$$libinit$$00000004  c_w.l(libinit2.o)
    0x08000242   0x00000000   Code   RO         1859    .ARM.Collect$$libinit$$0000000A  c_w.l(libinit2.o)
    0x08000242   0x00000000   Code   RO         1861    .ARM.Collect$$libinit$$0000000C  c_w.l(libinit2.o)
    0x08000242   0x00000000   Code   RO         1863    .ARM.Collect$$libinit$$0000000E  c_w.l(libinit2.o)
    0x08000242   0x00000000   Code   RO         1866    .ARM.Collect$$libinit$$00000011  c_w.l(libinit2.o)
    0x08000242   0x00000000   Code   RO         1868    .ARM.Collect$$libinit$$00000013  c_w.l(libinit2.o)
    0x08000242   0x00000000   Code   RO         1870    .ARM.Collect$$libinit$$00000015  c_w.l(libinit2.o)
    0x08000242   0x00000000   Code   RO         1872    .ARM.Collect$$libinit$$00000017  c_w.l(libinit2.o)
    0x08000242   0x00000000   Code   RO         1874    .ARM.Collect$$libinit$$00000019  c_w.l(libinit2.o)
    0x08000242   0x00000000   Code   RO         1876    .ARM.Collect$$libinit$$0000001B  c_w.l(libinit2.o)
    0x08000242   0x00000000   Code   RO         1878    .ARM.Collect$$libinit$$0000001D  c_w.l(libinit2.o)
    0x08000242   0x00000000   Code   RO         1880    .ARM.Collect$$libinit$$0000001F  c_w.l(libinit2.o)
    0x08000242   0x00000000   Code   RO         1882    .ARM.Collect$$libinit$$00000021  c_w.l(libinit2.o)
    0x08000242   0x00000000   Code   RO         1884    .ARM.Collect$$libinit$$00000023  c_w.l(libinit2.o)
    0x08000242   0x00000000   Code   RO         1886    .ARM.Collect$$libinit$$00000025  c_w.l(libinit2.o)
    0x08000242   0x00000000   Code   RO         1890    .ARM.Collect$$libinit$$0000002C  c_w.l(libinit2.o)
    0x08000242   0x00000000   Code   RO         1892    .ARM.Collect$$libinit$$0000002E  c_w.l(libinit2.o)
    0x08000242   0x00000000   Code   RO         1894    .ARM.Collect$$libinit$$00000030  c_w.l(libinit2.o)
    0x08000242   0x00000000   Code   RO         1896    .ARM.Collect$$libinit$$00000032  c_w.l(libinit2.o)
    0x08000242   0x00000002   Code   RO         1897    .ARM.Collect$$libinit$$00000033  c_w.l(libinit2.o)
    0x08000244   0x00000002   Code   RO         1929    .ARM.Collect$$libshutdown$$00000000  c_w.l(libshutdown.o)
    0x08000246   0x00000000   Code   RO         1946    .ARM.Collect$$libshutdown$$00000002  c_w.l(libshutdown2.o)
    0x08000246   0x00000000   Code   RO         1948    .ARM.Collect$$libshutdown$$00000004  c_w.l(libshutdown2.o)
    0x08000246   0x00000000   Code   RO         1951    .ARM.Collect$$libshutdown$$00000007  c_w.l(libshutdown2.o)
    0x08000246   0x00000000   Code   RO         1954    .ARM.Collect$$libshutdown$$0000000A  c_w.l(libshutdown2.o)
    0x08000246   0x00000000   Code   RO         1956    .ARM.Collect$$libshutdown$$0000000C  c_w.l(libshutdown2.o)
    0x08000246   0x00000000   Code   RO         1959    .ARM.Collect$$libshutdown$$0000000F  c_w.l(libshutdown2.o)
    0x08000246   0x00000002   Code   RO         1960    .ARM.Collect$$libshutdown$$00000010  c_w.l(libshutdown2.o)
    0x08000248   0x00000000   Code   RO         1732    .ARM.Collect$$rtentry$$00000000  c_w.l(__rtentry.o)
    0x08000248   0x00000000   Code   RO         1805    .ARM.Collect$$rtentry$$00000002  c_w.l(__rtentry2.o)
    0x08000248   0x00000006   Code   RO         1817    .ARM.Collect$$rtentry$$00000004  c_w.l(__rtentry4.o)
    0x0800024e   0x00000000   Code   RO         1807    .ARM.Collect$$rtentry$$00000009  c_w.l(__rtentry2.o)
    0x0800024e   0x00000004   Code   RO         1808    .ARM.Collect$$rtentry$$0000000A  c_w.l(__rtentry2.o)
    0x08000252   0x00000000   Code   RO         1810    .ARM.Collect$$rtentry$$0000000C  c_w.l(__rtentry2.o)
    0x08000252   0x00000008   Code   RO         1811    .ARM.Collect$$rtentry$$0000000D  c_w.l(__rtentry2.o)
    0x0800025a   0x00000002   Code   RO         1847    .ARM.Collect$$rtexit$$00000000  c_w.l(rtexit.o)
    0x0800025c   0x00000000   Code   RO         1901    .ARM.Collect$$rtexit$$00000002  c_w.l(rtexit2.o)
    0x0800025c   0x00000004   Code   RO         1902    .ARM.Collect$$rtexit$$00000003  c_w.l(rtexit2.o)
    0x08000260   0x00000006   Code   RO         1903    .ARM.Collect$$rtexit$$00000004  c_w.l(rtexit2.o)
    0x08000266   0x00000002   PAD
    0x08000268   0x000015d4   Code   RO            2    .text               scheduler.o
    0x0800183c   0x00000130   Code   RO          217    .text               init.o
    0x0800196c   0x00000570   Code   RO          257    .text               parameter.o
    0x08001edc   0x000000e8   Code   RO          310    .text               fly_mode.o
    0x08001fc4   0x00000014   Code   RO          337    .text               main.o
    0x08001fd8   0x0000002c   Code   RO          359    .text               stm32f4xx_it.o
    0x08002004   0x000003cc   Code   RO          375    .text               pwm_out.o
    0x080023d0   0x00000424   Code   RO          445    .text               iic_hml.o
    0x080027f4   0x000003a8   Code   RO          464    .text               i2c_soft.o
    0x08002b9c   0x0000006c   Code   RO          490    .text               led.o
    0x08002c08   0x00000ca8   Code   RO          511    .text               flash.o
    0x080038b0   0x00000280   Code   RO          534    .text               time.o
    0x08003b30   0x000001c4   Code   RO          561    .text               spi.o
    0x08003cf4   0x000000e0   Code   RO          581    .text               misc.o
    0x08003dd4   0x000003a8   Code   RO          629    .text               stm32f4xx_dma.o
    0x0800417c   0x000004bc   Code   RO          661    .text               stm32f4xx_flash.o
    0x08004638   0x0000025c   Code   RO          677    .text               stm32f4xx_gpio.o
    0x08004894   0x00000588   Code   RO          725    .text               stm32f4xx_rcc.o
    0x08004e1c   0x000003f8   Code   RO          743    .text               stm32f4xx_spi.o
    0x08005214   0x00000ca2   Code   RO          775    .text               stm32f4xx_tim.o
    0x08005eb6   0x00000002   PAD
    0x08005eb8   0x0000041a   Code   RO          791    .text               stm32f4xx_usart.o
    0x080062d2   0x00000002   PAD
    0x080062d4   0x00000210   Code   RO          807    .text               system_stm32f4xx.o
    0x080064e4   0x00000040   Code   RO          831    .text               startup_stm32f4xx.o
    0x08006524   0x00003420   Code   RO          836    .text               imu.o
    0x08009944   0x00000ef8   Code   RO          871    .text               alt_fushion.o
    0x0800a83c   0x00000910   Code   RO          913    .text               mymath.o
    0x0800b14c   0x000006f0   Code   RO          932    .text               filter.o
    0x0800b83c   0x000013f8   Code   RO          954    .text               fastmath.o
    0x0800cc34   0x000021d0   Code   RO          970    .text               quar.o
    0x0800ee04   0x00001f78   Code   RO         1009    .text               ctrl.o
    0x08010d7c   0x00001e64   Code   RO         1032    .text               height_ctrl.o
    0x08012be0   0x00003a60   Code   RO         1056    .text               pos_ctrl.o
    0x08016640   0x000083a8   Code   RO         1081    .text               usart.o
    0x0801e9e8   0x000028a4   Code   RO         1144    .text               data_transfer.o
    0x0802128c   0x0000066c   Code   RO         1169    .text               rc.o
    0x080218f8   0x000000e8   Code   RO         1196    .text               dma.o
    0x080219e0   0x00000998   Code   RO         1212    .text               mpu6050.o
    0x08022378   0x0000092c   Code   RO         1236    .text               ak8975.o
    0x08022ca4   0x0000077c   Code   RO         1267    .text               bmp.o
    0x08023420   0x000003b8   Code   RO         1298    .text               ultrasonic.o
    0x080237d8   0x000005e4   Code   RO         1321    .text               anotc_baro_ctrl.o
    0x08023dbc   0x00001758   Code   RO         1347    .text               kf_oldx.lib(kf_oldx.o)
    0x08025514   0x0000150c   Code   RO         1384    .text               eso.lib(eso.o)
    0x08026a20   0x00000100   Code   RO         1474    .text               kf_oldx.lib(rt_nonfinite.o)
    0x08026b20   0x00000134   Code   RO         1498    .text               kf_oldx.lib(rtgetinf.o)
    0x08026c54   0x000000c8   Code   RO         1510    .text               kf_oldx.lib(rtgetnan.o)
    0x08026d1c   0x00000048   Code   RO         1524    .text               c_w.l(llsdiv.o)
    0x08026d64   0x00000064   Code   RO         1526    .text               c_w.l(rt_memcpy_w.o)
    0x08026dc8   0x0000004e   Code   RO         1528    .text               c_w.l(rt_memclr_w.o)
    0x08026e16   0x00000006   Code   RO         1530    .text               c_w.l(heapauxi.o)
    0x08026e1c   0x000000ee   Code   RO         1733    .text               c_w.l(lludivv7m.o)
    0x08026f0a   0x00000016   Code   RO         1735    .text               c_w.l(_rserrno.o)
    0x08026f20   0x00000008   Code   RO         1826    .text               c_w.l(rt_errno_addr_intlibspace.o)
    0x08026f28   0x00000008   Code   RO         1830    .text               c_w.l(libspace.o)
    0x08026f30   0x0000004a   Code   RO         1833    .text               c_w.l(sys_stackheap_outer.o)
    0x08026f7a   0x00000012   Code   RO         1837    .text               c_w.l(exit.o)
    0x08026f8c   0x0000000c   Code   RO         1917    .text               c_w.l(sys_exit.o)
    0x08026f98   0x00000002   Code   RO         1934    .text               c_w.l(use_no_semi.o)
    0x08026f9a   0x00000000   Code   RO         1936    .text               c_w.l(indicate_semi.o)
    0x08026f9a   0x00000030   Code   RO         1769    i.__ARM_fpclassify  m_wm.l(fpclassify.o)
    0x08026fca   0x00000026   Code   RO         1771    i.__ARM_fpclassifyf  m_wm.l(fpclassifyf.o)
    0x08026ff0   0x00000360   Code   RO         1570    i.__hardfp_asin     m_wm.l(asin.o)
    0x08027350   0x0000012c   Code   RO         1584    i.__hardfp_asinf    m_wm.l(asinf.o)
    0x0802747c   0x00000004   PAD
    0x08027480   0x000002d8   Code   RO         1596    i.__hardfp_atan     m_wm.l(atan.o)
    0x08027758   0x000001f0   Code   RO         1610    i.__hardfp_atan2    m_wm.l(atan2.o)
    0x08027948   0x00000250   Code   RO         1622    i.__hardfp_atan2f   m_wm.l(atan2f.o)
    0x08027b98   0x000000c8   Code   RO         1634    i.__hardfp_cos      m_wm.l(cos.o)
    0x08027c60   0x00000150   Code   RO         1646    i.__hardfp_cosf     m_wm.l(cosf.o)
    0x08027db0   0x00000014   Code   RO         1658    i.__hardfp_fabs     m_wm.l(fabs.o)
    0x08027dc4   0x00000004   PAD
    0x08027dc8   0x00000118   Code   RO         1664    i.__hardfp_floor    m_wm.l(floor.o)
    0x08027ee0   0x00000c50   Code   RO         1670    i.__hardfp_pow      m_wm.l(pow.o)
    0x08028b30   0x000000c8   Code   RO         1684    i.__hardfp_sin      m_wm.l(sin.o)
    0x08028bf8   0x00000190   Code   RO         1696    i.__hardfp_sinf     m_wm.l(sinf.o)
    0x08028d88   0x0000007a   Code   RO         1708    i.__hardfp_sqrt     m_wm.l(sqrt.o)
    0x08028e02   0x0000003a   Code   RO         1720    i.__hardfp_sqrtf    m_wm.l(sqrtf.o)
    0x08028e3c   0x00000004   PAD
    0x08028e40   0x00000438   Code   RO         1790    i.__ieee754_rem_pio2  m_wm.l(rred.o)
    0x08029278   0x00000170   Code   RO         1752    i.__kernel_cos      m_wm.l(cos_i.o)
    0x080293e8   0x000000f8   Code   RO         1787    i.__kernel_poly     m_wm.l(poly.o)
    0x080294e0   0x00000130   Code   RO         1798    i.__kernel_sin      m_wm.l(sin_i.o)
    0x08029610   0x00000030   Code   RO         1755    i.__mathlib_dbl_divzero  m_wm.l(dunder.o)
    0x08029640   0x00000014   Code   RO         1756    i.__mathlib_dbl_infnan  m_wm.l(dunder.o)
    0x08029654   0x00000014   Code   RO         1757    i.__mathlib_dbl_infnan2  m_wm.l(dunder.o)
    0x08029668   0x00000020   Code   RO         1758    i.__mathlib_dbl_invalid  m_wm.l(dunder.o)
    0x08029688   0x00000020   Code   RO         1759    i.__mathlib_dbl_overflow  m_wm.l(dunder.o)
    0x080296a8   0x00000020   Code   RO         1761    i.__mathlib_dbl_underflow  m_wm.l(dunder.o)
    0x080296c8   0x00000006   Code   RO         1774    i.__mathlib_flt_infnan  m_wm.l(funder.o)
    0x080296ce   0x00000006   Code   RO         1775    i.__mathlib_flt_infnan2  m_wm.l(funder.o)
    0x080296d4   0x00000010   Code   RO         1776    i.__mathlib_flt_invalid  m_wm.l(funder.o)
    0x080296e4   0x00000010   Code   RO         1779    i.__mathlib_flt_underflow  m_wm.l(funder.o)
    0x080296f4   0x00000154   Code   RO         1795    i.__mathlib_rredf2  m_wm.l(rredf.o)
    0x08029848   0x00000010   Code   RO         1598    i.atan              m_wm.l(atan.o)
    0x08029858   0x00000018   Code   RO         1660    i.fabs              m_wm.l(fabs.o)
    0x08029870   0x0000006e   Code   RO         1710    i.sqrt              m_wm.l(sqrt.o)
    0x080298de   0x0000003e   Code   RO         1722    i.sqrtf             m_wm.l(sqrtf.o)
    0x0802991c   0x00000018   Code   RO         1534    x$fpl$basic         fz_wm.l(basic.o)
    0x08029934   0x00000062   Code   RO         1536    x$fpl$d2f           fz_wm.l(d2f.o)
    0x08029996   0x00000002   PAD
    0x08029998   0x00000150   Code   RO         1538    x$fpl$dadd          fz_wm.l(daddsub_clz.o)
    0x08029ae8   0x00000010   Code   RO         1828    x$fpl$dcheck1       fz_wm.l(dcheck1.o)
    0x08029af8   0x00000018   Code   RO         1737    x$fpl$dcmpinf       fz_wm.l(dcmpi.o)
    0x08029b10   0x000002b0   Code   RO         1545    x$fpl$ddiv          fz_wm.l(ddiv.o)
    0x08029dc0   0x00000078   Code   RO         1548    x$fpl$deqf          fz_wm.l(deqf.o)
    0x08029e38   0x0000005e   Code   RO         1550    x$fpl$dfix          fz_wm.l(dfix.o)
    0x08029e96   0x0000002e   Code   RO         1555    x$fpl$dflt          fz_wm.l(dflt_clz.o)
    0x08029ec4   0x00000026   Code   RO         1554    x$fpl$dfltu         fz_wm.l(dflt_clz.o)
    0x08029eea   0x00000002   PAD
    0x08029eec   0x00000078   Code   RO         1560    x$fpl$dleqf         fz_wm.l(dleqf.o)
    0x08029f64   0x00000154   Code   RO         1562    x$fpl$dmul          fz_wm.l(dmul.o)
    0x0802a0b8   0x0000009c   Code   RO         1739    x$fpl$dnaninf       fz_wm.l(dnaninf.o)
    0x0802a154   0x0000000c   Code   RO         1741    x$fpl$dretinf       fz_wm.l(dretinf.o)
    0x0802a160   0x0000006c   Code   RO         1564    x$fpl$drleqf        fz_wm.l(drleqf.o)
    0x0802a1cc   0x00000016   Code   RO         1539    x$fpl$drsb          fz_wm.l(daddsub_clz.o)
    0x0802a1e2   0x00000002   PAD
    0x0802a1e4   0x00000198   Code   RO         1743    x$fpl$dsqrt         fz_wm.l(dsqrt_umaal.o)
    0x0802a37c   0x000001d4   Code   RO         1540    x$fpl$dsub          fz_wm.l(daddsub_clz.o)
    0x0802a550   0x00000056   Code   RO         1566    x$fpl$f2d           fz_wm.l(f2d.o)
    0x0802a5a6   0x00000060   Code   RO         1568    x$fpl$ffltll        fz_wm.l(ffltll_clz.o)
    0x0802a606   0x0000008c   Code   RO         1745    x$fpl$fnaninf       fz_wm.l(fnaninf.o)
    0x0802a692   0x0000000a   Code   RO         1915    x$fpl$fpinit        fz_wm.l(fpinit.o)
    0x0802a69c   0x0000000a   Code   RO         1747    x$fpl$fretinf       fz_wm.l(fretinf.o)
    0x0802a6a6   0x00000064   Code   RO         1845    x$fpl$retnan        fz_wm.l(retnan.o)
    0x0802a70a   0x0000005c   Code   RO         1749    x$fpl$scalbn        fz_wm.l(scalbn.o)
    0x0802a766   0x00000030   Code   RO         1898    x$fpl$trapveneer    fz_wm.l(trapv.o)
    0x0802a796   0x00000000   Code   RO         1751    x$fpl$usenofp       fz_wm.l(usenofp.o)
    0x0802a796   0x00000002   PAD
    0x0802a798   0x00000030   Data   RO          259    .constdata          parameter.o
    0x0802a7c8   0x00000018   Data   RO          873    .constdata          alt_fushion.o
    0x0802a7e0   0x00000880   Data   RO          955    .constdata          fastmath.o
    0x0802b060   0x00000024   Data   RO          972    .constdata          quar.o
    0x0802b084   0x0000001c   Data   RO         1058    .constdata          pos_ctrl.o
    0x0802b0a0   0x00000084   Data   RO         1348    .constdata          kf_oldx.lib(kf_oldx.o)
    0x0802b124   0x00000004   PAD
    0x0802b128   0x00000050   Data   RO         1573    .constdata          m_wm.l(asin.o)
    0x0802b178   0x00000098   Data   RO         1599    .constdata          m_wm.l(atan.o)
    0x0802b210   0x00000088   Data   RO         1673    .constdata          m_wm.l(pow.o)
    0x0802b298   0x00000030   Data   RO         1753    .constdata          m_wm.l(cos_i.o)
    0x0802b2c8   0x00000008   Data   RO         1789    .constdata          m_wm.l(qnan.o)
    0x0802b2d0   0x000000c8   Data   RO         1792    .constdata          m_wm.l(rred.o)
    0x0802b398   0x00000020   Data   RO         1796    .constdata          m_wm.l(rredf.o)
    0x0802b3b8   0x00000028   Data   RO         1799    .constdata          m_wm.l(sin_i.o)
    0x0802b3e0   0x00000020   Data   RO         1977    Region$$Table       anon$$obj.o


    Execution Region RW_IRAM1 (Base: 0x20000000, Size: 0x00005e60, Max: 0x00020000, ABSOLUTE, COMPRESSED[0x00000648])

    Base Addr    Size         Type   Attr      Idx    E Section Name        Object

    0x20000000   0x00000037   Data   RW            4    .data               scheduler.o
    0x20000037   0x00000004   Data   RW          218    .data               init.o
    0x2000003b   0x00000001   PAD
    0x2000003c   0x0000000c   Data   RW          260    .data               parameter.o
    0x20000048   0x00000008   Data   RW          312    .data               fly_mode.o
    0x20000050   0x00000001   Data   RW          338    .data               main.o
    0x20000051   0x00000001   PAD
    0x20000052   0x0000000e   Data   RW          376    .data               pwm_out.o
    0x20000060   0x00000001   Data   RW          465    .data               i2c_soft.o
    0x20000061   0x00000001   Data   RW          491    .data               led.o
    0x20000062   0x00000002   PAD
    0x20000064   0x00000010   Data   RW          513    .data               flash.o
    0x20000074   0x00000014   Data   RW          536    .data               time.o
    0x20000088   0x00000001   Data   RW          563    .data               spi.o
    0x20000089   0x00000010   Data   RW          726    .data               stm32f4xx_rcc.o
    0x20000099   0x00000003   PAD
    0x2000009c   0x00000014   Data   RW          808    .data               system_stm32f4xx.o
    0x200000b0   0x00000138   Data   RW          838    .data               imu.o
    0x200001e8   0x0000020c   Data   RW          874    .data               alt_fushion.o
    0x200003f4   0x00000404   Data   RW          914    .data               mymath.o
    0x200007f8   0x00000025   Data   RW          934    .data               filter.o
    0x2000081d   0x00000003   PAD
    0x20000820   0x00000038   Data   RW         1011    .data               ctrl.o
    0x20000858   0x00000168   Data   RW         1034    .data               height_ctrl.o
    0x200009c0   0x00000126   Data   RW         1059    .data               pos_ctrl.o
    0x20000ae6   0x00000002   PAD
    0x20000ae8   0x00000124   Data   RW         1083    .data               usart.o
    0x20000c0c   0x00000028   Data   RW         1146    .data               data_transfer.o
    0x20000c34   0x00000048   Data   RW         1171    .data               rc.o
    0x20000c7c   0x0000001c   Data   RW         1214    .data               mpu6050.o
    0x20000c98   0x00000100   Data   RW         1238    .data               ak8975.o
    0x20000d98   0x0000008d   Data   RW         1269    .data               bmp.o
    0x20000e25   0x00000003   PAD
    0x20000e28   0x0000000d   Data   RW         1300    .data               ultrasonic.o
    0x20000e35   0x00000003   PAD
    0x20000e38   0x0000004c   Data   RW         1323    .data               anotc_baro_ctrl.o
    0x20000e84   0x00000040   Data   RW         1386    .data               eso.lib(eso.o)
    0x20000ec4   0x00000004   PAD
    0x20000ec8   0x00000024   Data   RW         1475    .data               kf_oldx.lib(rt_nonfinite.o)
    0x20000eec   0x00000034   Zero   RW            3    .bss                scheduler.o
    0x20000f20   0x00000100   Zero   RW          258    .bss                parameter.o
    0x20001020   0x00000060   Zero   RW          311    .bss                fly_mode.o
    0x20001080   0x000010c8   Zero   RW          512    .bss                flash.o
    0x20002148   0x00000168   Zero   RW          535    .bss                time.o
    0x200022b0   0x0000000a   Zero   RW          562    .bss                spi.o
    0x200022ba   0x00000002   PAD
    0x200022bc   0x000000c8   Zero   RW          837    .bss                imu.o
    0x20002384   0x00000004   PAD
    0x20002388   0x000002cc   Zero   RW          872    .bss                alt_fushion.o
    0x20002654   0x00000064   Zero   RW          933    .bss                filter.o
    0x200026b8   0x000000e4   Zero   RW          971    .bss                quar.o
    0x2000279c   0x00000204   Zero   RW         1010    .bss                ctrl.o
    0x200029a0   0x00000520   Zero   RW         1033    .bss                height_ctrl.o
    0x20002ec0   0x00000274   Zero   RW         1057    .bss                pos_ctrl.o
    0x20003134   0x00001048   Zero   RW         1082    .bss                usart.o
    0x2000417c   0x00000083   Zero   RW         1145    .bss                data_transfer.o
    0x200041ff   0x00000001   PAD
    0x20004200   0x000000f0   Zero   RW         1170    .bss                rc.o
    0x200042f0   0x00000200   Zero   RW         1213    .bss                mpu6050.o
    0x200044f0   0x00000140   Zero   RW         1237    .bss                ak8975.o
    0x20004630   0x0000003c   Zero   RW         1268    .bss                bmp.o
    0x2000466c   0x000000a0   Zero   RW         1299    .bss                ultrasonic.o
    0x2000470c   0x00000310   Zero   RW         1322    .bss                anotc_baro_ctrl.o
    0x20004a1c   0x000007e0   Zero   RW         1385    .bss                eso.lib(eso.o)
    0x200051fc   0x00000060   Zero   RW         1831    .bss                c_w.l(libspace.o)
    0x2000525c   0x00000004   PAD
    0x20005260   0x00000400   Zero   RW          829    HEAP                startup_stm32f4xx.o
    0x20005660   0x00000800   Zero   RW          828    STACK               startup_stm32f4xx.o


==============================================================================

Image component sizes


      Code (inc. data)   RO Data    RW Data    ZI Data      Debug   Object Name

      2348        124          0        256        320       8002   ak8975.o
      3832        402         24        524        716      10660   alt_fushion.o
      1508        140          0         76        784       6206   anotc_baro_ctrl.o
      1916        182          0        141         60       7143   bmp.o
      8056        536          0         56        516       5749   ctrl.o
     10404        478          0         40        131      13376   data_transfer.o
       232          4          0          0          0       1380   dma.o
      5112        288       2176          0          0      11903   fastmath.o
      1776         72          0         37        100       5775   filter.o
      3240        170          0         16       4296       7548   flash.o
       232         28          0          8         96      10863   fly_mode.o
      7780        854          0        360       1312      10615   height_ctrl.o
       936         10          0          1          0       4478   i2c_soft.o
      1060         14          0          0          0       4755   iic_hml.o
     13344        764          0        312        200      14251   imu.o
       304         42          0          4          0       1472   init.o
       108         10          0          1          0        642   led.o
        20          4          0          1          0        653   main.o
       224         20          0          0          0       1925   misc.o
      2456        118          0         28        512      16662   mpu6050.o
      2320        150          0       1028          0       7384   mymath.o
      1392        132         48         12        256       4490   parameter.o
     14944       1182         28        294        628      11887   pos_ctrl.o
       972         30          0         14          0       3651   pwm_out.o
      8656        150         36          0        228      12024   quar.o
      1644        148          0         72        240       3603   rc.o
      5588        602          0         55         52     301404   scheduler.o
       452         20          0          1         10       2130   spi.o
        64         26        392          0       3072        888   startup_stm32f4xx.o
       936         32          0          0          0       6501   stm32f4xx_dma.o
      1212         26          0          0          0       7193   stm32f4xx_flash.o
       604         36          0          0          0       4229   stm32f4xx_gpio.o
        44          4          0          0          0       1349   stm32f4xx_it.o
      1416         48          0         16          0      11159   stm32f4xx_rcc.o
      1016         22          0          0          0       6953   stm32f4xx_spi.o
      3234         60          0          0          0      23124   stm32f4xx_tim.o
      1050         26          0          0          0       7968   stm32f4xx_usart.o
       528         46          0         20          0       1987   system_stm32f4xx.o
       640         38          0         20        360      21388   time.o
       952         52          0         13        160       3137   ultrasonic.o
     33704       1464          0        292       4168      35594   usart.o

    ----------------------------------------------------------------------
    146260       8554       2736       3716      18224     622101   Object Totals
         0          0         32          0          0          0   (incl. Generated)
         4          0          0         18          7          0   (incl. Padding)

    ----------------------------------------------------------------------

      Code (inc. data)   RO Data    RW Data    ZI Data      Debug   Library Member Name

        90          0          0          0          0          0   __dczerorl2.o
         8          0          0          0          0         68   __main.o
         0          0          0          0          0          0   __rtentry.o
        12          0          0          0          0          0   __rtentry2.o
         6          0          0          0          0          0   __rtentry4.o
        52          8          0          0          0          0   __scatter.o
        28          0          0          0          0          0   __scatter_zi.o
        22          0          0          0          0        100   _rserrno.o
        18          0          0          0          0         80   exit.o
         6          0          0          0          0        152   heapauxi.o
         0          0          0          0          0          0   indicate_semi.o
         2          0          0          0          0          0   libinit.o
         6          0          0          0          0          0   libinit2.o
         2          0          0          0          0          0   libshutdown.o
         2          0          0          0          0          0   libshutdown2.o
         8          4          0          0         96         68   libspace.o
        72          0          0          0          0         76   llsdiv.o
       238          0          0          0          0        100   lludivv7m.o
         8          4          0          0          0         68   rt_errno_addr_intlibspace.o
        78          0          0          0          0         80   rt_memclr_w.o
       100          0          0          0          0         80   rt_memcpy_w.o
         2          0          0          0          0          0   rtexit.o
        10          0          0          0          0          0   rtexit2.o
        12          4          0          0          0         68   sys_exit.o
        74          0          0          0          0         80   sys_stackheap_outer.o
         2          0          0          0          0         68   use_no_semi.o
      5388        194          0         64       2016     226145   eso.o
        24          0          0          0          0        164   basic.o
        98          4          0          0          0        140   d2f.o
       826         16          0          0          0        492   daddsub_clz.o
        16          4          0          0          0        116   dcheck1.o
        24          0          0          0          0        116   dcmpi.o
       688        140          0          0          0        256   ddiv.o
       120          4          0          0          0        140   deqf.o
        94          4          0          0          0        140   dfix.o
        84          0          0          0          0        232   dflt_clz.o
       120          4          0          0          0        140   dleqf.o
       340         12          0          0          0        152   dmul.o
       156          4          0          0          0        140   dnaninf.o
        12          0          0          0          0        116   dretinf.o
       108          0          0          0          0        128   drleqf.o
       408         56          0          0          0        168   dsqrt_umaal.o
        86          4          0          0          0        132   f2d.o
        96          0          0          0          0        132   ffltll_clz.o
       140          4          0          0          0        132   fnaninf.o
        10          0          0          0          0        116   fpinit.o
        10          0          0          0          0        116   fretinf.o
       100          0          0          0          0        116   retnan.o
        92          0          0          0          0        116   scalbn.o
        48          0          0          0          0        116   trapv.o
         0          0          0          0          0          0   usenofp.o
      5976        170        132          0          0       6610   kf_oldx.o
       256         26          0         36          0       1984   rt_nonfinite.o
       308         22          0          0          0       1934   rtgetinf.o
       200         18          0          0          0       1305   rtgetnan.o
       864         94         80          0          0        280   asin.o
       300         42          0          0          0        176   asinf.o
       744        106        152          0          0        352   atan.o
       496         64          0          0          0        192   atan2.o
       592         90          0          0          0        184   atan2f.o
       200         20          0          0          0        164   cos.o
       368         46         48          0          0        200   cos_i.o
       336         56          0          0          0        136   cosf.o
       184         44          0          0          0        744   dunder.o
        44          0          0          0          0        248   fabs.o
       280         28          0          0          0        156   floor.o
        48          0          0          0          0        124   fpclassify.o
        38          0          0          0          0        116   fpclassifyf.o
        44         12          0          0          0        464   funder.o
       248          0          0          0          0        152   poly.o
      3152        296        136          0          0        352   pow.o
         0          0          8          0          0          0   qnan.o
      1080        142        200          0          0        188   rred.o
       340         24         32          0          0        160   rredf.o
       200         20          0          0          0        164   sin.o
       304         24         40          0          0        208   sin_i.o
       400         56          0          0          0        212   sinf.o
       232          0          0          0          0        296   sqrt.o
       120          0          0          0          0        272   sqrtf.o

    ----------------------------------------------------------------------
     27324       1874        832        104       2116     248222   Library Totals
        24          4          4          4          4          0   (incl. Padding)

    ----------------------------------------------------------------------

      Code (inc. data)   RO Data    RW Data    ZI Data      Debug   Library Name

       858         20          0          0         96       1088   c_w.l
      5388        194          0         64       2016     226145   eso.lib
      3700        256          0          0          0       3616   fz_wm.l
      6740        236        132         36          0      11833   kf_oldx.lib
     10614       1164        696          0          0       5540   m_wm.l

    ----------------------------------------------------------------------
     27324       1874        832        104       2116     248222   Library Totals

    ----------------------------------------------------------------------

==============================================================================


      Code (inc. data)   RO Data    RW Data    ZI Data      Debug   

    173584      10428       3568       3820      20340     853655   Grand Totals
    173584      10428       3568       1608      20340     853655   ELF Image Totals (compressed)
    173584      10428       3568       1608          0          0   ROM Totals

==============================================================================

    Total RO  Size (Code + RO Data)               177152 ( 173.00kB)
    Total RW  Size (RW Data + ZI Data)             24160 (  23.59kB)
    Total ROM Size (Code + RO Data + RW Data)     178760 ( 174.57kB)

==============================================================================

